(dp1
S'64679-0929-01_PART_1_OF_1_CHAL10_SF_6521B2ED.png'
p2
I0
sS'50111-0468-01_PART_1_OF_1_CHAL10_SF_39301CE0.png'
p3
I0
sS'00093-4339-01_PART_1_OF_1_CHAL10_SF_B82DDC0E.png'
p4
I0
sS'39822-0205-01_PART_1_OF_1_CHAL10_SF_7F1C3FB1.png'
p5
I0
sS'00093-2204-01_PART_1_OF_1_CHAL10_SF_8426C266.png'
p6
I0
sS'00378-0501-01_PART_1_OF_1_CHAL10_SF_CA21657B.png'
p7
I0
sS'00093-7334-01_PART_1_OF_1_CHAL10_SF_A929548A.png'
p8
I0
sS'00555-9016-58_PART_1_OF_2_CHAL10_SF_492FA48D.png'
p9
I0
sS'58468-0130-01_PART_1_OF_1_CHAL10_SF_D71C6B93.png'
p10
I0
sS'00093-5171-20_PART_1_OF_1_CHAL10_SF_4C2DA60D.png'
p11
I0
sS'62756-0712-86_PART_1_OF_1_CHAL10_SF_890EC4C6.png'
p12
I0
sS'00093-7287-89_PART_1_OF_1_CHAL10_SF_D22FE95F.png'
p13
I0
sS'00832-0038-00_PART_1_OF_1_CHAL10_SF_BB22DDA6.png'
p14
I0
sS'00093-5050-06_PART_1_OF_1_CHAL10_SF_992D4C9A.png'
p15
I0
sS'00009-0055-01_PART_1_OF_1_CHAL10_SF_CA1DE53F.png'
p16
I0
sS'00093-7327-01_PART_1_OF_1_CHAL10_SF_B02D580A.png'
p17
I0
sS'00093-0757-01_PART_1_OF_1_CHAL10_SF_AC2B561A.png'
p18
I0
sS'00093-0318-01_PART_1_OF_1_CHAL10_SF_462B2319.png'
p19
I0
sS'00378-1105-01_PART_1_OF_1_CHAL10_SF_D822EC47.png'
p20
I0
sS'00054-4182-25_PART_1_OF_1_CHAL10_SF_77233BF9.png'
p21
I0
sS'00378-7003-93_PART_1_OF_1_CHAL10_SF_74243A01.png'
p22
I0
sS'00093-9107-29_PART_1_OF_1_CHAL10_SF_8A21C51E.png'
p23
I0
sS'00143-1241-01_PART_1_OF_1_CHAL10_SF_B323599A.png'
p24
I0
sS'68462-0208-01_PART_1_OF_1_CHAL10_SF_7A1B3D59.png'
p25
I0
sS'00832-1080-00_PART_1_OF_1_CHAL10_SF_C0266053.png'
p26
I0
sS'68462-0358-05_PART_1_OF_1_CHAL10_SF_A71C53C2.png'
p27
I0
sS'00093-2275-34_PART_1_OF_1_CHAL10_SF_D82D6C1B.png'
p28
I0
sS'00093-7305-65_PART_1_OF_1_CHAL10_SF_7C2F3E59.png'
p29
I0
sS'00781-5185-01_PART_1_OF_1_CHAL10_SF_8323C1DE.png'
p30
I0
sS'00093-5125-01_PART_1_OF_1_CHAL10_SF_342D9A0C.png'
p31
I0
sS'00093-2075-01_PART_1_OF_1_CHAL10_SF_C326E187.png'
p32
I0
sS'00093-0017-01_PART_1_OF_1_CHAL10_SF_6629B33D.png'
p33
I0
sS'00378-3856-77_PART_1_OF_1_CHAL10_SF_F71C7BE3.png'
p34
I0
sS'67877-0147-01_PART_1_OF_1_CHAL10_SF_D61DEB0F.png'
p35
I0
sS'65862-0052-30_PART_1_OF_1_CHAL10_SF_E522F2D7.png'
p36
I0
sS'49884-0403-91_PART_1_OF_1_CHAL10_SF_3E1C9F54.png'
p37
I0
sS'00093-7181-01_PART_1_OF_1_CHAL10_SF_2D2B96CC.png'
p38
I0
sS'51285-0424-10_PART_1_OF_1_CHAL10_SF_562F2B09.png'
p39
I0
sS'00093-0733-01_PART_1_OF_1_CHAL10_SF_1E210F08.png'
p40
I0
sS'00093-0011-98_PART_1_OF_1_CHAL10_SF_2829944C.png'
p41
I0
sS'49230-0640-21_PART_1_OF_1_CHAL10_SF_C81C6413.png'
p42
I0
sS'00069-1540-68_PART_1_OF_1_CHAL10_SF_BB1C5DE2.png'
p43
I0
sS'51672-4029-01_PART_1_OF_1_CHAL10_SF_B9265CF2.png'
p44
I0
sS'00093-7267-01_PART_1_OF_1_CHAL10_SF_DF2FEFEF.png'
p45
I0
sS'00093-0154-01_PART_1_OF_1_CHAL10_SF_6F29B7BD.png'
p46
I0
sS'00093-7242-06_PART_1_OF_1_CHAL10_SF_76293B69.png'
p47
I0
sS'00093-1005-01_PART_1_OF_1_CHAL10_SF_9629CB0E.png'
p48
I0
sS'00002-3229-30_PART_1_OF_1_CHAL10_SF_3E1E1F50.png'
p49
I0
sS'60505-0065-01_PART_1_OF_1_CHAL10_SF_021D811C.png'
p50
I0
sS'00603-6147-21_PART_1_OF_1_CHAL10_SF_212190CC.png'
p51
I0
sS'23635-0108-20_PART_1_OF_1_CHAL10_SF_DC1DEE0F.png'
p52
I0
sS'00228-2551-06_PART_1_OF_1_CHAL10_SF_6A233509.png'
p53
I0
sS'00093-2264-01_PART_1_OF_1_CHAL10_SF_DE296F5B.png'
p54
I0
sS'00378-0152-01_PART_1_OF_1_CHAL10_SF_3D231E88.png'
p55
I0
sS'00143-1473-01_PART_1_OF_1_CHAL10_SF_A8205472.png'
p56
I0
sS'00378-3857-77_PART_1_OF_1_CHAL10_SF_FD1C7EE3.png'
p57
I0
sS'00185-0124-01_PART_1_OF_1_CHAL10_SF_AA23551A.png'
p58
I0
sS'00555-9025-42_PART_1_OF_1_CHAL10_SF_F22F796B.png'
p59
I0
sS'47335-0580-81_PART_1_OF_1_CHAL10_SF_7212B945.png'
p60
I0
sS'00378-2537-01_PART_1_OF_1_CHAL10_SF_04268244.png'
p61
I0
sS'00093-0756-01_PART_1_OF_1_CHAL10_SF_A82B540A.png'
p62
I0
sS'00093-0135-01_PART_1_OF_1_CHAL10_SF_D32169FB.png'
p63
I0
sS'00172-5728-60_PART_1_OF_1_CHAL10_SF_5821AC5D.png'
p64
I0
sS'00093-0051-01_PART_1_OF_1_CHAL10_SF_A022D026.png'
p65
I0
sS'00172-5412-79_PART_1_OF_1_CHAL10_SF_862DC31E.png'
p66
I0
sS'00172-3757-60_PART_1_OF_1_CHAL10_SF_56202B31.png'
p67
I0
sS'00093-0948-01_PART_1_OF_1_CHAL10_SF_272B1388.png'
p68
I0
sS'00555-0324-02_PART_1_OF_1_CHAL10_SF_DE2B6F6B.png'
p69
I0
sS'00228-2128-10_PART_1_OF_1_CHAL10_SF_F6337B3B.png'
p70
I0
sS'00143-1425-01_PART_1_OF_1_CHAL10_SF_B12658A2.png'
p71
I0
sS'00555-0967-02_PART_1_OF_1_CHAL10_SF_58302C71.png'
p72
I0
sS'00185-0149-01_PART_1_OF_1_CHAL10_SF_7608BB65.png'
p73
I0
sS'00172-4358-46_PART_1_OF_1_CHAL10_SF_172D8B9C.png'
p74
I0
sS'00591-5335-01_PART_1_OF_1_CHAL10_SF_501DA84D.png'
p75
I0
sS'00555-0997-02_PART_1_OF_1_CHAL10_SF_BC2F5E6A.png'
p76
I0
sS'00378-6233-01_PART_1_OF_1_CHAL10_SF_47242381.png'
p77
I0
sS'00378-0143-01_PART_1_OF_1_CHAL10_SF_8221411A.png'
p78
I0
sS'00172-6359-60_PART_1_OF_1_CHAL10_SF_CB2D658B.png'
p79
I0
sS'00172-3760-60_PART_1_OF_1_CHAL10_SF_C22D610B.png'
p80
I0
sS'63459-0700-60_PART_1_OF_1_CHAL10_SF_572D2B99.png'
p81
I0
sS'64679-0936-03_PART_1_OF_1_CHAL10_SF_7E05BF4D.png'
p82
I0
sS'52544-0152-30_PART_1_OF_1_CHAL10_SF_041C8214.png'
p83
I0
sS'00093-0782-56_PART_1_OF_1_CHAL10_SF_392B1C88.png'
p84
I0
sS'00093-7380-01_PART_1_OF_1_CHAL10_SF_B12958DA.png'
p85
I0
sS'00172-4626-60_PART_1_OF_1_CHAL10_SF_6B2DB59D.png'
p86
I0
sS'00172-5313-60_PART_1_OF_1_CHAL10_SF_BC27DE7E.png'
p87
I0
sS'00555-0835-02_PART_1_OF_1_CHAL10_SF_98214C5A.png'
p88
I0
sS'00378-1815-01_PART_1_OF_1_CHAL10_SF_4423A22D.png'
p89
I0
sS'00007-4892-20_PART_1_OF_1_CHAL10_SF_BE18DF56.png'
p90
I0
sS'68180-0518-01_PART_1_OF_1_CHAL10_SF_070883B4.png'
p91
I0
sS'65862-0142-01_PART_1_OF_1_CHAL10_SF_A621537A.png'
p92
I0
sS'66582-0312-31_PART_1_OF_1_CHAL10_SF_B21DD90E.png'
p93
I0
sS'00555-9012-58_PART_4_OF_4_CHAL10_SF_832FC1CE.png'
p94
I0
sS'00093-5207-01_PART_1_OF_1_CHAL10_SF_782BBC1D.png'
p95
I0
sS'00555-0859-02_PART_1_OF_1_CHAL10_SF_512F2899.png'
p96
I0
sS'00093-4068-01_PART_1_OF_1_CHAL10_SF_CC26E637.png'
p97
I0
sS'00378-0218-01_PART_1_OF_1_CHAL10_SF_BF205FB2.png'
p98
I0
sS'00093-7240-06_PART_1_OF_1_CHAL10_SF_7F293FE9.png'
p99
I0
sS'00172-2662-46_PART_1_OF_1_CHAL10_SF_592DAC9D.png'
p100
I0
sS'00093-7294-01_PART_1_OF_1_CHAL10_SF_812F40CA.png'
p101
I0
sS'00093-3165-01_PART_1_OF_1_CHAL10_SF_19270CA8.png'
p102
I0
sS'47335-0894-81_PART_1_OF_1_CHAL10_SF_7F1DBFBD.png'
p103
I0
sS'59762-5019-01_PART_1_OF_1_CHAL10_SF_232191EC.png'
p104
I0
sS'00093-5711-01_PART_1_OF_1_CHAL10_SF_3A2B9D5C.png'
p105
I0
sS'00093-7115-98_PART_1_OF_1_CHAL10_SF_36269B64.png'
p106
I0
sS'00172-4280-60_PART_1_OF_1_CHAL10_SF_1D2D8EFC.png'
p107
I0
sS'00078-0359-34_PART_1_OF_1_CHAL10_SF_EC15765B.png'
p108
I0
sS'54092-0189-81_PART_1_OF_1_CHAL10_SF_381B9C6C.png'
p109
I0
sS'00093-7188-56_PART_1_OF_1_CHAL10_SF_F92D7CCB.png'
p110
I0
sS'00093-2929-01_PART_1_OF_1_CHAL10_SF_E52972BB.png'
p111
I0
sS'00093-2204-01_PART_1_OF_1_CHAL10_SF_8A204572.png'
p112
I0
sS'16252-0591-99_PART_1_OF_1_CHAL10_SF_F31D79FB.png'
p113
I0
sS'00781-2054-01_PART_1_OF_1_CHAL10_SF_A30ED1E6.png'
p114
I0
sS'00378-0722-19_PART_1_OF_1_CHAL10_SF_3E241F00.png'
p115
I0
sS'50111-0563-01_PART_1_OF_1_CHAL10_SF_6B243581.png'
p116
I0
sS'00093-0320-01_PART_1_OF_1_CHAL10_SF_702B3819.png'
p117
I0
sS'00093-7116-98_PART_1_OF_1_CHAL10_SF_6F2BB79D.png'
p118
I0
sS'50111-0483-01_PART_1_OF_1_CHAL10_SF_333019E0.png'
p119
I0
sS'00074-6122-90_PART_1_OF_1_CHAL10_SF_051D829C.png'
p120
I0
sS'00093-5353-01_PART_1_OF_1_CHAL10_SF_03270198.png'
p121
I0
sS'00378-0310-01_PART_1_OF_1_CHAL10_SF_4121A08D.png'
p122
I0
sS'00378-2625-01_PART_1_OF_1_CHAL10_SF_CE23E72F.png'
p123
I0
sS'00378-1053-01_PART_1_OF_1_CHAL10_SF_32211928.png'
p124
I0
sS'59762-4960-01_PART_1_OF_1_CHAL10_SF_74213A59.png'
p125
I0
sS'00093-5769-56_PART_1_OF_1_CHAL10_SF_F227F97F.png'
p126
I0
sS'00145-3817-03_PART_1_OF_1_CHAL10_SF_DA196D7B.png'
p127
I0
sS'00054-4728-25_PART_1_OF_1_CHAL10_SF_8723C3EE.png'
p128
I0
sS'00093-5851-01_PART_1_OF_1_CHAL10_SF_812BC09E.png'
p129
I0
sS'00555-0969-02_PART_1_OF_1_CHAL10_SF_0C300600.png'
p130
I0
sS'00555-0834-02_PART_1_OF_1_CHAL10_SF_932F49CA.png'
p131
I0
sS'00378-0305-01_PART_1_OF_1_CHAL10_SF_332199CC.png'
p132
I0
sS'00093-1060-01_PART_1_OF_1_CHAL10_SF_DC29EE4F.png'
p133
I0
sS'00555-9008-67_PART_1_OF_2_CHAL10_SF_252F928C.png'
p134
I0
sS'62037-0793-60_PART_1_OF_1_CHAL10_SF_832041B2.png'
p135
I0
sS'00074-6594-90_PART_1_OF_1_CHAL10_SF_AB1D55FA.png'
p136
I0
sS'67253-0902-10_PART_1_OF_1_CHAL10_SF_AC15561A.png'
p137
I0
sS'00555-0633-02_PART_1_OF_1_CHAL10_SF_72303931.png'
p138
I0
sS'00093-1061-01_PART_1_OF_1_CHAL10_SF_9329C9EE.png'
p139
I0
sS'00310-0281-60_PART_1_OF_1_CHAL10_SF_091C84E4.png'
p140
I0
sS'00093-0225-06_PART_1_OF_1_CHAL10_SF_8D2946DA.png'
p141
I0
sS'00093-7295-01_PART_1_OF_1_CHAL10_SF_31281890.png'
p142
I0
sS'00093-7382-01_PART_1_OF_1_CHAL10_SF_64293269.png'
p143
I0
sS'00049-4910-30_PART_1_OF_1_CHAL10_SF_881DC46E.png'
p144
I0
sS'00378-1140-01_PART_1_OF_1_CHAL10_SF_B8235C0A.png'
p145
I0
sS'59762-5021-01_PART_1_OF_1_CHAL10_SF_19230CB8.png'
p146
I0
sS'00378-1809-01_PART_1_OF_1_CHAL10_SF_5623AB5D.png'
p147
I0
sS'68180-0502-01_PART_1_OF_1_CHAL10_SF_F623FB3F.png'
p148
I0
sS'16252-0572-50_PART_1_OF_1_CHAL10_SF_DB1FEDBF.png'
p149
I0
sS'00145-0091-25_PART_1_OF_1_CHAL10_SF_DD196ECB.png'
p150
I0
sS'00781-2201-01_PART_1_OF_1_CHAL10_SF_D01DE80F.png'
p151
I0
sS'00172-5728-60_PART_1_OF_1_CHAL10_SF_9E27CF4E.png'
p152
I0
sS'00006-0277-54_PART_1_OF_1_CHAL10_SF_16160B30.png'
p153
I0
sS'00555-1057-86_PART_1_OF_1_CHAL10_SF_DE306F63.png'
p154
I0
sS'00093-0778-01_PART_1_OF_1_CHAL10_SF_4D2926C9.png'
p155
I0
sS'00591-5554-01_PART_1_OF_1_CHAL10_SF_E52172FB.png'
p156
I0
sS'50111-0787-66_PART_1_OF_1_CHAL10_SF_C42FE26F.png'
p157
I0
sS'00173-0565-04_PART_1_OF_1_CHAL10_SF_461DA30D.png'
p158
I0
sS'00555-9028-58_PART_2_OF_2_CHAL10_SF_682FB44D.png'
p159
I0
sS'00093-3123-01_PART_1_OF_1_CHAL10_SF_EB26F597.png'
p160
I0
sS'64764-0805-30_PART_1_OF_1_CHAL10_SF_191C8C94.png'
p161
I0
sS'00149-0007-05_PART_1_OF_1_CHAL10_SF_AB1FD58E.png'
p162
I0
sS'00093-7241-06_PART_1_OF_1_CHAL10_SF_8B2945BA.png'
p163
I0
sS'00093-1172-01_PART_1_OF_1_CHAL10_SF_CC2DE65F.png'
p164
I0
sS'00093-7304-65_PART_1_OF_1_CHAL10_SF_712F3889.png'
p165
I0
sS'51285-0114-58_PART_1_OF_3_CHAL10_SF_942DCA0E.png'
p166
I0
sS'00378-6231-01_PART_1_OF_1_CHAL10_SF_6B2135D9.png'
p167
I0
sS'00006-0112-54_PART_1_OF_1_CHAL10_SF_131609E0.png'
p168
I0
sS'00093-0041-65_PART_1_OF_1_CHAL10_SF_F7297BBB.png'
p169
I0
sS'53489-0146-01_PART_1_OF_1_CHAL10_SF_8021C06E.png'
p170
I0
sS'43386-0660-24_PART_1_OF_1_CHAL10_SF_D91DECBF.png'
p171
I0
sS'00093-0149-01_PART_1_OF_1_CHAL10_SF_BA23DD0E.png'
p172
I0
sS'00555-9026-58_PART_1_OF_2_CHAL10_SF_1B2F8DDC.png'
p173
I0
sS'59762-5024-01_PART_1_OF_1_CHAL10_SF_4D26A6A5.png'
p174
I0
sS'00093-4740-01_PART_1_OF_1_CHAL10_SF_F02D781B.png'
p175
I0
sS'00078-0360-34_PART_1_OF_1_CHAL10_SF_F015780B.png'
p176
I0
sS'00093-7368-56_PART_1_OF_1_CHAL10_SF_A42FD24E.png'
p177
I0
sS'00093-0576-06_PART_1_OF_1_CHAL10_SF_6026B005.png'
p178
I0
sS'00093-3010-84_PART_1_OF_1_CHAL10_SF_F72CFBF7.png'
p179
I0
sS'00093-0810-01_PART_1_OF_1_CHAL10_SF_24231228.png'
p180
I0
sS'00093-0711-01_PART_1_OF_1_CHAL10_SF_7E2B3F69.png'
p181
I0
sS'00172-4365-60_PART_1_OF_1_CHAL10_SF_1C280E70.png'
p182
I0
sS'00093-7796-06_PART_1_OF_1_CHAL10_SF_AB27D5DE.png'
p183
I0
sS'00093-5770-56_PART_1_OF_1_CHAL10_SF_E927F4FF.png'
p184
I0
sS'00555-0832-02_PART_1_OF_1_CHAL10_SF_CE2F676B.png'
p185
I0
sS'00093-7303-65_PART_1_OF_1_CHAL10_SF_752F3A99.png'
p186
I0
sS'50111-0325-01_PART_1_OF_1_CHAL10_SF_D32F69DB.png'
p187
I0
sS'00781-5181-01_PART_1_OF_1_CHAL10_SF_6C23B66D.png'
p188
I0
sS'00378-1150-01_PART_1_OF_1_CHAL10_SF_8B23458A.png'
p189
I0
sS'00093-7212-01_PART_1_OF_1_CHAL10_SF_C92FE4DF.png'
p190
I0
sS'00185-0117-01_PART_1_OF_1_CHAL10_SF_D520EAA7.png'
p191
I0
sS'65862-0044-01_PART_1_OF_1_CHAL10_SF_8C23C65E.png'
p192
I0
sS'00555-0831-02_PART_1_OF_1_CHAL10_SF_C52F62EB.png'
p193
I0
sS'47781-0307-01_PART_1_OF_1_CHAL10_SF_C41C6263.png'
p194
I0
sS'00555-0860-02_PART_1_OF_1_CHAL10_SF_D72F6BEB.png'
p195
I0
sS'00093-2060-98_PART_1_OF_1_CHAL10_SF_072983CC.png'
p196
I0
sS'00074-3040-11_PART_1_OF_1_CHAL10_SF_DB1D6DFB.png'
p197
I0
sS'31722-0278-10_PART_1_OF_1_CHAL10_SF_241D925C.png'
p198
I0
sS'00781-1506-01_PART_1_OF_1_CHAL10_SF_36201B40.png'
p199
I0
sS'00093-7383-01_PART_1_OF_1_CHAL10_SF_56292B49.png'
p200
I0
sS'00093-5112-98_PART_1_OF_1_CHAL10_SF_4E2D2719.png'
p201
I0
sS'00093-0926-06_PART_1_OF_1_CHAL10_SF_9826CC56.png'
p202
I0
sS'50111-0309-01_PART_1_OF_1_CHAL10_SF_8629434A.png'
p203
I0
sS'68453-0375-10_PART_1_OF_1_CHAL10_SF_14200A30.png'
p204
I0
sS'00093-0308-01_PART_1_OF_1_CHAL10_SF_342B1A18.png'
p205
I0
sS'00093-7219-06_PART_1_OF_1_CHAL10_SF_72293959.png'
p206
I0
sS'00378-1803-01_PART_1_OF_1_CHAL10_SF_2A23950C.png'
p207
I0
sS'65862-0012-30_PART_1_OF_1_CHAL10_SF_052182EC.png'
p208
I0
sS'53489-0648-01_PART_1_OF_1_CHAL10_SF_D31DE9BF.png'
p209
I0
sS'00093-0810-01_PART_1_OF_1_CHAL10_SF_34271A58.png'
p210
I0
sS'00781-1787-01_PART_1_OF_1_CHAL10_SF_BA235D2A.png'
p211
I0
sS'00071-0419-24_PART_1_OF_1_CHAL10_SF_361C9B04.png'
p212
I0
sS'00093-7258-56_PART_1_OF_1_CHAL10_SF_28301410.png'
p213
I0
sS'00093-1041-01_PART_1_OF_1_CHAL10_SF_C429E27F.png'
p214
I0
sS'51672-4035-01_PART_1_OF_1_CHAL10_SF_DA266D43.png'
p215
I0
sS'00378-0208-01_PART_1_OF_1_CHAL10_SF_99204CF2.png'
p216
I0
sS'50111-0459-01_PART_1_OF_1_CHAL10_SF_1C300E70.png'
p217
I0
sS'12496-1283-02_PART_1_OF_1_CHAL10_SF_281D940C.png'
p218
I0
sS'00093-8036-01_PART_1_OF_1_CHAL10_SF_C2266173.png'
p219
I0
sS'50111-0434-01_PART_1_OF_1_CHAL10_SF_4F212799.png'
p220
I0
sS'00093-7220-06_PART_1_OF_1_CHAL10_SF_692934D9.png'
p221
I0
sS'00093-5206-01_PART_1_OF_1_CHAL10_SF_682BB40D.png'
p222
I0
sS'00093-1049-98_PART_1_OF_1_CHAL10_SF_CE29E75F.png'
p223
I0
sS'53489-0138-01_PART_1_OF_1_CHAL10_SF_B3205982.png'
p224
I0
sS'00093-0811-01_PART_1_OF_1_CHAL10_SF_15270A98.png'
p225
I0
sS'51672-4030-01_PART_1_OF_1_CHAL10_SF_D12668F3.png'
p226
I0
sS'52544-0291-28_PART_2_OF_4_CHAL10_SF_601E3031.png'
p227
I0
sS'65862-0053-30_PART_1_OF_1_CHAL10_SF_C621630B.png'
p228
I0
sS'00093-5116-01_PART_1_OF_1_CHAL10_SF_B92D5C8A.png'
p229
I0
sS'49884-0653-01_PART_1_OF_1_CHAL10_SF_4B212589.png'
p230
I0
sS'53489-0384-01_PART_1_OF_1_CHAL10_SF_4D202681.png'
p231
I0
sS'00555-0925-02_PART_1_OF_1_CHAL10_SF_46212319.png'
p232
I0
sS'00781-5189-01_PART_1_OF_1_CHAL10_SF_7523BAED.png'
p233
I0
sS'00172-4960-58_PART_1_OF_1_CHAL10_SF_AF2DD78E.png'
p234
I0
sS'00172-3650-70_PART_1_OF_1_CHAL10_SF_7626BB45.png'
p235
I0
sS'00093-5289-56_PART_1_OF_1_CHAL10_SF_9927CCDE.png'
p236
I0
sS'00378-5123-01_PART_1_OF_1_CHAL10_SF_D223E93F.png'
p237
I0
sS'50111-0648-01_PART_1_OF_1_CHAL10_SF_6E303721.png'
p238
I0
sS'51285-0692-02_PART_1_OF_1_CHAL10_SF_8A2F454A.png'
p239
I0
sS'00093-5036-01_PART_1_OF_1_CHAL10_SF_122D0978.png'
p240
I0
sS'00093-5256-68_PART_1_OF_1_CHAL10_SF_15268A84.png'
p241
I0
sS'16729-0042-01_PART_1_OF_1_CHAL10_SF_4C1E2611.png'
p242
I0
sS'00093-7795-06_PART_1_OF_1_CHAL10_SF_A727D3CE.png'
p243
I0
sS'00093-7208-56_PART_1_OF_1_CHAL10_SF_E42FF25F.png'
p244
I0
sS'00093-7198-56_PART_1_OF_1_CHAL10_SF_C429620B.png'
p245
I0
sS'00093-5118-98_PART_1_OF_1_CHAL10_SF_452D2299.png'
p246
I0
sS'00093-5049-06_PART_1_OF_1_CHAL10_SF_A22D511A.png'
p247
I0
sS'00555-0869-02_PART_1_OF_1_CHAL10_SF_B32F59EA.png'
p248
I0
sS'00093-7493-06_PART_1_OF_1_CHAL10_SF_DB2FEDDF.png'
p249
I0
sS'00054-0017-25_PART_1_OF_1_CHAL10_SF_F7217BFB.png'
p250
I0
sS'68180-0481-01_PART_1_OF_1_CHAL10_SF_FA217D1B.png'
p251
I0
sS'00093-7224-98_PART_1_OF_1_CHAL10_SF_B5305AF2.png'
p252
I0
sS'00093-7442-56_PART_1_OF_1_CHAL10_SF_30271848.png'
p253
I0
sS'51285-0091-58_PART_2_OF_2_CHAL10_SF_8F2DC79E.png'
p254
I0
sS'00093-7386-56_PART_1_OF_1_CHAL10_SF_092F84AC.png'
p255
I0
sS'00093-0135-01_PART_1_OF_1_CHAL10_SF_39281CE0.png'
p256
I0
sS'51285-0080-70_PART_2_OF_2_CHAL10_SF_442FA21D.png'
p257
I0
sS'62037-0640-30_PART_1_OF_1_CHAL10_SF_19268CC4.png'
p258
I0
sS'16252-0590-99_PART_1_OF_1_CHAL10_SF_2B2015D0.png'
p259
I0
sS'00555-0926-02_PART_1_OF_1_CHAL10_SF_DE2F6F4B.png'
p260
I0
sS'00378-3205-01_PART_1_OF_1_CHAL10_SF_B41C5A52.png'
p261
I0
sS'00093-2270-34_PART_1_OF_1_CHAL10_SF_E12D70FB.png'
p262
I0
sS'00093-5501-01_PART_1_OF_1_CHAL10_SF_CF2D679B.png'
p263
I0
sS'00093-0199-01_PART_1_OF_1_CHAL10_SF_CD266683.png'
p264
I0
sS'00054-0109-25_PART_1_OF_1_CHAL10_SF_00268004.png'
p265
I0
sS'00075-7700-60_PART_1_OF_1_CHAL10_SF_E51C72E3.png'
p266
I0
sS'00186-5040-31_PART_1_OF_1_CHAL10_SF_FE1D7F6B.png'
p267
I0
sS'49884-0922-02_PART_1_OF_1_CHAL10_SF_5E08AF65.png'
p268
I0
sS'00093-0670-06_PART_1_OF_1_CHAL10_SF_822B417A.png'
p269
I0
sS'00555-0779-02_PART_1_OF_1_CHAL10_SF_42302161.png'
p270
I0
sS'00456-3210-60_PART_1_OF_1_CHAL10_SF_B21FD94E.png'
p271
I0
sS'00781-2053-01_PART_1_OF_1_CHAL10_SF_521E2911.png'
p272
I0
sS'00023-9350-07_PART_1_OF_1_CHAL10_SF_D4196A7B.png'
p273
I0
sS'10144-0602-15_PART_1_OF_1_CHAL10_SF_FA1DFD3F.png'
p274
I0
sS'50111-0469-01_PART_1_OF_1_CHAL10_SF_46302371.png'
p275
I0
sS'00093-7168-98_PART_1_OF_1_CHAL10_SF_4229A13D.png'
p276
I0
sS'00093-5247-65_PART_1_OF_1_CHAL10_SF_8F26C7D6.png'
p277
I0
sS'50111-0397-01_PART_1_OF_1_CHAL10_SF_F72FFBEF.png'
p278
I0
sS'60505-5307-01_PART_1_OF_1_CHAL10_SF_4D26A6D5.png'
p279
I0
sS'00074-3020-11_PART_1_OF_1_CHAL10_SF_E01D703B.png'
p280
I0
sS'00093-7158-06_PART_1_OF_1_CHAL10_SF_312B98DC.png'
p281
I0
sS'00781-5183-01_PART_1_OF_1_CHAL10_SF_7E23BF6D.png'
p282
I0
sS'00555-0302-02_PART_1_OF_1_CHAL10_SF_E22B717B.png'
p283
I0
sS'00093-7256-01_PART_1_OF_1_CHAL10_SF_6C2F3619.png'
p284
I0
sS'00093-3171-01_PART_1_OF_1_CHAL10_SF_E626F327.png'
p285
I0
sS'00603-3741-21_PART_1_OF_1_CHAL10_SF_DD22EEE7.png'
p286
I0
sS'00093-0173-56_PART_1_OF_1_CHAL10_SF_A429524A.png'
p287
I0
sS'00093-7436-01_PART_1_OF_1_CHAL10_SF_8D3046B2.png'
p288
I0
sS'00781-5188-01_PART_1_OF_1_CHAL10_SF_D020E837.png'
p289
I0
sS'00093-2055-06_PART_1_OF_1_CHAL10_SF_B12B588A.png'
p290
I0
sS'00071-1017-68_PART_1_OF_1_CHAL10_SF_5515AAAD.png'
p291
I0
sS'00093-3127-01_PART_1_OF_1_CHAL10_SF_C12DE08F.png'
p292
I0
sS'00781-5046-01_PART_1_OF_1_CHAL10_SF_F223F92F.png'
p293
I0
sS'00062-2085-12_PART_1_OF_1_CHAL10_SF_06130328.png'
p294
I0
sS'00093-7121-98_PART_1_OF_1_CHAL10_SF_5D2BAE9D.png'
p295
I0
sS'00093-7178-01_PART_1_OF_1_CHAL10_SF_D329E9CF.png'
p296
I0
sS'50111-0328-01_PART_1_OF_1_CHAL10_SF_55212A99.png'
p297
I0
sS'65862-0050-30_PART_1_OF_1_CHAL10_SF_012180AC.png'
p298
I0
sS'00555-0925-02_PART_1_OF_1_CHAL10_SF_972F4BDA.png'
p299
I0
sS'68180-0501-01_PART_1_OF_1_CHAL10_SF_08240460.png'
p300
I0
sS'00093-7366-56_PART_1_OF_1_CHAL10_SF_B12FD8DE.png'
p301
I0
sS'63459-0701-60_PART_1_OF_1_CHAL10_SF_602D3019.png'
p302
I0
sS'00093-1893-01_PART_1_OF_1_CHAL10_SF_9C2B4E3A.png'
p303
I0
sS'66993-0107-02_PART_1_OF_1_CHAL10_SF_3A239D7C.png'
p304
I0
sS'00555-0572-35_PART_1_OF_1_CHAL10_SF_1B2B8DCC.png'
p305
I0
sS'68462-0361-01_PART_1_OF_1_CHAL10_SF_D222E917.png'
p306
I0
sS'59762-5011-01_PART_1_OF_1_CHAL10_SF_1D230EC8.png'
p307
I0
sS'00093-0174-56_PART_1_OF_1_CHAL10_SF_96294B5A.png'
p308
I0
sS'00781-2020-05_PART_1_OF_1_CHAL10_SF_D812EC47.png'
p309
I0
sS'51285-0063-90_PART_2_OF_2_CHAL10_SF_732D39A9.png'
p310
I0
sS'00378-3495-01_PART_1_OF_1_CHAL10_SF_15238AEC.png'
p311
I0
sS'00555-0285-02_PART_1_OF_1_CHAL10_SF_F52B7AAB.png'
p312
I0
sS'00555-0590-01_PART_1_OF_1_CHAL10_SF_0E2F871C.png'
p313
I0
sS'00078-0574-15_PART_1_OF_1_CHAL10_SF_3E1D9F4C.png'
p314
I0
sS'00378-1821-01_PART_1_OF_1_CHAL10_SF_4D23A6AD.png'
p315
I0
sS'00456-0457-01_PART_1_OF_1_CHAL10_SF_D51D6AFB.png'
p316
I0
sS'00093-7156-56_PART_1_OF_1_CHAL10_SF_DF27EF8F.png'
p317
I0
sS'51248-0151-03_PART_1_OF_1_CHAL10_SF_5A1DAD5D.png'
p318
I0
sS'50111-0852-01_PART_1_OF_1_CHAL10_SF_7B303DB1.png'
p319
I0
sS'50111-0308-01_PART_1_OF_1_CHAL10_SF_94294A3A.png'
p320
I0
sS'00093-7238-98_PART_1_OF_1_CHAL10_SF_731DB9BD.png'
p321
I0
sS'00378-2675-01_PART_1_OF_1_CHAL10_SF_E52372EB.png'
p322
I0
sS'00093-0771-98_PART_1_OF_1_CHAL10_SF_CA27E56F.png'
p323
I0
sS'00603-5165-32_PART_1_OF_1_CHAL10_SF_2F1B97BC.png'
p324
I0
sS'55513-0073-30_PART_1_OF_1_CHAL10_SF_1B1C8DE4.png'
p325
I0
sS'00093-7207-56_PART_1_OF_1_CHAL10_SF_E62FF37F.png'
p326
I0
sS'50458-0579-30_PART_1_OF_1_CHAL10_SF_8F1DC7FE.png'
p327
I0
sS'50111-0398-01_PART_1_OF_1_CHAL10_SF_04300270.png'
p328
I0
sS'00555-9016-58_PART_2_OF_2_CHAL10_SF_4D2FA69D.png'
p329
I0
sS'63304-0693-01_PART_1_OF_1_CHAL10_SF_F7267BB3.png'
p330
I0
sS'00093-1118-01_PART_1_OF_1_CHAL10_SF_D32969BB.png'
p331
I0
sS'00093-0812-01_PART_1_OF_1_CHAL10_SF_2D2316D8.png'
p332
I0
sS'00172-4285-60_PART_1_OF_1_CHAL10_SF_672DB38D.png'
p333
I0
sS'00093-7370-01_PART_1_OF_1_CHAL10_SF_F026F807.png'
p334
I0
sS'99207-0467-30_PART_1_OF_1_CHAL10_SF_C11D60AB.png'
p335
I0
sS'00093-0983-01_PART_1_OF_1_CHAL10_SF_7A29BD5D.png'
p336
I0
sS'00173-0785-01_PART_1_OF_1_CHAL10_SF_AC18D656.png'
p337
I0
sS'00555-0513-02_PART_1_OF_1_CHAL10_SF_D92B6CFB.png'
p338
I0
sS'00169-0081-81_PART_1_OF_1_CHAL10_SF_CD1C66E3.png'
p339
I0
sS'00093-5507-56_PART_1_OF_1_CHAL10_SF_0C270618.png'
p340
I0
sS'68382-0023-01_PART_1_OF_1_CHAL10_SF_452022C1.png'
p341
I0
sS'00093-5213-01_PART_1_OF_1_CHAL10_SF_632BB1FD.png'
p342
I0
sS'00093-5420-88_PART_1_OF_1_CHAL10_SF_8E2BC72E.png'
p343
I0
sS'00781-1487-01_PART_1_OF_1_CHAL10_SF_112408E0.png'
p344
I0
sS'00093-0028-01_PART_1_OF_1_CHAL10_SF_6A29B54D.png'
p345
I0
sS'00006-0749-54_PART_1_OF_1_CHAL10_SF_821DC16E.png'
p346
I0
sS'50111-0471-01_PART_1_OF_1_CHAL10_SF_18300C00.png'
p347
I0
sS'00093-7115-98_PART_1_OF_1_CHAL10_SF_732BB9AD.png'
p348
I0
sS'63304-0830-90_PART_1_OF_1_CHAL10_SF_E91C7493.png'
p349
I0
sS'00093-0149-01_PART_1_OF_1_CHAL10_SF_2629932C.png'
p350
I0
sS'00555-0323-02_PART_1_OF_1_CHAL10_SF_E72B73EB.png'
p351
I0
sS'00093-4059-53_PART_1_OF_1_CHAL10_SF_FD2D7EDB.png'
p352
I0
sS'00002-3239-30_PART_1_OF_1_CHAL10_SF_3F1E1F80.png'
p353
I0
sS'00093-7167-98_PART_1_OF_1_CHAL10_SF_6129B0CD.png'
p354
I0
sS'00591-3202-01_PART_1_OF_1_CHAL10_SF_C11FE0FF.png'
p355
I0
sS'00172-4096-60_PART_1_OF_1_CHAL10_SF_B726DBE6.png'
p356
I0
sS'00093-1016-01_PART_1_OF_1_CHAL10_SF_BA29DD0E.png'
p357
I0
sS'00093-7234-01_PART_1_OF_1_CHAL10_SF_B13058E2.png'
p358
I0
sS'00078-0358-34_PART_1_OF_1_CHAL10_SF_EA15750B.png'
p359
I0
sS'00093-7188-56_PART_1_OF_1_CHAL10_SF_0323818C.png'
p360
I0
sS'65862-0156-30_PART_1_OF_1_CHAL10_SF_1E238F6C.png'
p361
I0
sS'00093-0734-01_PART_1_OF_1_CHAL10_SF_6C2B3609.png'
p362
I0
sS'60505-0185-00_PART_1_OF_1_CHAL10_SF_27269384.png'
p363
I0
sS'00172-5729-60_PART_1_OF_1_CHAL10_SF_092804E0.png'
p364
I0
sS'00093-5061-01_PART_1_OF_1_CHAL10_SF_7C2D3E29.png'
p365
I0
sS'00172-2908-60_PART_1_OF_1_CHAL10_SF_BC26DE56.png'
p366
I0
sS'00093-7146-56_PART_1_OF_1_CHAL10_SF_282B945C.png'
p367
I0
sS'50111-0397-01_PART_1_OF_1_CHAL10_SF_30269804.png'
p368
I0
sS'50111-0308-01_PART_1_OF_1_CHAL10_SF_1D268ED4.png'
p369
I0
sS'00555-9010-58_PART_1_OF_2_CHAL10_SF_372F9B8C.png'
p370
I0
sS'55111-0343-30_PART_1_OF_1_CHAL10_SF_4826A465.png'
p371
I0
sS'63459-0404-30_PART_1_OF_1_CHAL10_SF_A72D538A.png'
p372
I0
sS'00093-4356-01_PART_1_OF_1_CHAL10_SF_0E210728.png'
p373
I0
sS'59762-2003-01_PART_1_OF_1_CHAL10_SF_EC1DF61F.png'
p374
I0
sS'23155-0062-01_PART_1_OF_1_CHAL10_SF_D91D6CAB.png'
p375
I0
sS'67767-0133-60_PART_1_OF_1_CHAL10_SF_26269354.png'
p376
I0
sS'00093-7152-98_PART_1_OF_1_CHAL10_SF_EE27F76F.png'
p377
I0
sS'00093-3011-01_PART_1_OF_1_CHAL10_SF_202D1008.png'
p378
I0
sS'00093-0027-01_PART_1_OF_1_CHAL10_SF_1D298EAC.png'
p379
I0
sS'00555-1022-01_PART_1_OF_1_CHAL10_SF_CC2B666B.png'
p380
I0
sS'00555-0833-02_PART_1_OF_1_CHAL10_SF_C12F60DB.png'
p381
I0
sS'65862-0064-01_PART_1_OF_1_CHAL10_SF_252392CC.png'
p382
I0
sS'00093-1006-01_PART_1_OF_1_CHAL10_SF_D729EBDF.png'
p383
I0
sS'16252-0516-05_PART_1_OF_1_CHAL10_SF_D61FEB7F.png'
p384
I0
sS'00555-9012-58_PART_3_OF_4_CHAL10_SF_7F2FBFBD.png'
p385
I0
sS'68180-0480-01_PART_1_OF_1_CHAL10_SF_0A21855C.png'
p386
I0
sS'53489-0139-01_PART_1_OF_1_CHAL10_SF_B0205832.png'
p387
I0
sS'51285-0092-87_PART_1_OF_2_CHAL10_SF_BE305F72.png'
p388
I0
sS'00093-0852-53_PART_1_OF_1_CHAL10_SF_2C241600.png'
p389
I0
sS'00093-4741-01_PART_1_OF_1_CHAL10_SF_F42D7A5B.png'
p390
I0
sS'00093-2131-01_PART_1_OF_1_CHAL10_SF_E729F3BF.png'
p391
I0
sS'00093-7248-06_PART_1_OF_1_CHAL10_SF_7829BC3D.png'
p392
I0
sS'59762-2858-01_PART_1_OF_1_CHAL10_SF_00200070.png'
p393
I0
sS'60505-0065-00_PART_1_OF_1_CHAL10_SF_412920F9.png'
p394
I0
sS'00093-0733-01_PART_1_OF_1_CHAL10_SF_672B3399.png'
p395
I0
sS'00173-0135-55_PART_1_OF_1_CHAL10_SF_E718F397.png'
p396
I0
sS'00093-4069-01_PART_1_OF_1_CHAL10_SF_E126F0B7.png'
p397
I0
sS'00378-1807-01_PART_1_OF_1_CHAL10_SF_1A238D5C.png'
p398
I0
sS'65580-0304-03_PART_1_OF_1_CHAL10_SF_011280A4.png'
p399
I0
sS'51285-0691-02_PART_1_OF_1_CHAL10_SF_5F2F2F89.png'
p400
I0
sS'00093-0132-01_PART_1_OF_1_CHAL10_SF_15298A8C.png'
p401
I0
sS'00378-1813-01_PART_1_OF_1_CHAL10_SF_4823A43D.png'
p402
I0
sS'00093-0083-98_PART_1_OF_1_CHAL10_SF_3B299DDC.png'
p403
I0
sS'50111-0470-01_PART_1_OF_1_CHAL10_SF_FB2FFDFF.png'
p404
I0
sS'00093-7670-01_PART_1_OF_1_CHAL10_SF_8327C19E.png'
p405
I0
sS'00093-7385-56_PART_1_OF_1_CHAL10_SF_002F802C.png'
p406
I0
sS'51285-0690-02_PART_1_OF_1_CHAL10_SF_852F42DA.png'
p407
I0
sS'00093-4236-01_PART_1_OF_1_CHAL10_SF_112388AC.png'
p408
I0
sS'00093-7155-56_PART_1_OF_1_CHAL10_SF_A227D15E.png'
p409
I0
sS'00093-1063-01_PART_1_OF_1_CHAL10_SF_22269114.png'
p410
I0
sS'00172-4357-49_PART_1_OF_1_CHAL10_SF_622DB11D.png'
p411
I0
sS'00007-4642-13_PART_1_OF_1_CHAL10_SF_8C18C666.png'
p412
I0
sS'68968-3500-01_PART_1_OF_1_CHAL10_SF_581E2C71.png'
p413
I0
sS'00093-1174-01_PART_1_OF_1_CHAL10_SF_B52B5AFA.png'
p414
I0
sS'00173-0755-00_PART_1_OF_1_CHAL10_SF_BC15DE0E.png'
p415
I0
sS'00093-3002-56_PART_1_OF_1_CHAL10_SF_0D2986FC.png'
p416
I0
sS'00310-0279-10_PART_1_OF_1_CHAL10_SF_131C8994.png'
p417
I0
sS'00591-5052-01_PART_1_OF_1_CHAL10_SF_BD215E8A.png'
p418
I0
sS'00378-0350-01_PART_1_OF_1_CHAL10_SF_2D2116B8.png'
p419
I0
sS'51285-0114-58_PART_2_OF_3_CHAL10_SF_982DCC1E.png'
p420
I0
sS'00093-0233-56_PART_1_OF_1_CHAL10_SF_1E2B0F08.png'
p421
I0
sS'00093-7293-53_PART_1_OF_1_CHAL10_SF_871C43D2.png'
p422
I0
sS'00591-0388-01_PART_1_OF_1_CHAL10_SF_BB1FDD9E.png'
p423
I0
sS'00093-0319-01_PART_1_OF_1_CHAL10_SF_792B3CF9.png'
p424
I0
sS'55111-0196-90_PART_1_OF_1_CHAL10_SF_701DB86D.png'
p425
I0
sS'00093-4029-01_PART_1_OF_1_CHAL10_SF_272713C8.png'
p426
I0
sS'68462-0360-01_PART_1_OF_1_CHAL10_SF_06230358.png'
p427
I0
sS'00093-7355-56_PART_1_OF_1_CHAL10_SF_D42D6A0B.png'
p428
I0
sS'00093-7222-98_PART_1_OF_1_CHAL10_SF_4F3027F1.png'
p429
I0
sS'00781-1486-01_PART_1_OF_1_CHAL10_SF_16240B50.png'
p430
I0
sS'00093-0147-01_PART_1_OF_1_CHAL10_SF_212990BC.png'
p431
I0
sS'00093-1062-01_PART_1_OF_1_CHAL10_SF_A529D2EE.png'
p432
I0
sS'00173-0758-60_PART_1_OF_2_CHAL10_SF_E019704B.png'
p433
I0
sS'00093-4359-01_PART_1_OF_1_CHAL10_SF_2F2D97FC.png'
p434
I0
sS'00093-0813-01_PART_1_OF_1_CHAL10_SF_2D2316A8.png'
p435
I0
sS'00555-9012-58_PART_1_OF_4_CHAL10_SF_762FBB3D.png'
p436
I0
sS'00093-7206-56_PART_1_OF_1_CHAL10_SF_9F2FCFDE.png'
p437
I0
sS'00093-0787-01_PART_1_OF_1_CHAL10_SF_AE26D766.png'
p438
I0
sS'00832-1025-00_PART_1_OF_1_CHAL10_SF_73233989.png'
p439
I0
sS'00172-5312-70_PART_1_OF_1_CHAL10_SF_C127E0EF.png'
p440
I0
sS'00378-1811-01_PART_1_OF_1_CHAL10_SF_5123A8BD.png'
p441
I0
sS'50111-0434-01_PART_1_OF_1_CHAL10_SF_F22FF97F.png'
p442
I0
sS'00071-0156-23_PART_1_OF_1_CHAL10_SF_741C3A41.png'
p443
I0
sS'00378-3632-01_PART_1_OF_1_CHAL10_SF_4B242591.png'
p444
I0
sS'00093-7114-98_PART_1_OF_1_CHAL10_SF_8A2BC51E.png'
p445
I0
sS'00093-0813-01_PART_1_OF_1_CHAL10_SF_D626EB47.png'
p446
I0
sS'00093-7336-06_PART_1_OF_1_CHAL10_SF_FA26FD17.png'
p447
I0
sS'00093-7367-56_PART_1_OF_1_CHAL10_SF_C02FE05F.png'
p448
I0
sS'00093-7465-98_PART_1_OF_1_CHAL10_SF_761DBB6D.png'
p449
I0
sS'55111-0180-15_PART_1_OF_1_CHAL10_SF_D31D69AB.png'
p450
I0
sS'00173-0556-02_PART_1_OF_1_CHAL10_SF_251912B8.png'
p451
I0
sS'00093-5035-01_PART_1_OF_1_CHAL10_SF_472DA39D.png'
p452
I0
sS'00093-5150-01_PART_1_OF_1_CHAL10_SF_2E29974C.png'
p453
I0
sS'00378-4884-01_PART_1_OF_1_CHAL10_SF_4521A2FD.png'
p454
I0
sS'50111-0326-01_PART_1_OF_1_CHAL10_SF_9C2F4E4A.png'
p455
I0
sS'00093-0900-01_PART_1_OF_1_CHAL10_SF_5A292D59.png'
p456
I0
sS'00781-5191-01_PART_1_OF_1_CHAL10_SF_CD20E6B7.png'
p457
I0
sS'00093-7169-56_PART_1_OF_1_CHAL10_SF_1F2B8FDC.png'
p458
I0
sS'00056-0176-70_PART_1_OF_1_CHAL10_SF_99134CAA.png'
p459
I0
sS'00781-1966-01_PART_1_OF_1_CHAL10_SF_B5265AE2.png'
p460
I0
sS'00093-5126-01_PART_1_OF_1_CHAL10_SF_382D9C7C.png'
p461
I0
sS'00093-1122-01_PART_1_OF_1_CHAL10_SF_CC29665B.png'
p462
I0
sS'00004-0800-85_PART_1_OF_1_CHAL10_SF_491E24C1.png'
p463
I0
sS'00093-7438-01_PART_1_OF_1_CHAL10_SF_84304232.png'
p464
I0
sS'00378-2073-01_PART_1_OF_1_CHAL10_SF_C523E2AF.png'
p465
I0
sS'00378-5124-01_PART_1_OF_1_CHAL10_SF_3C219E7C.png'
p466
I0
sS'00093-7212-01_PART_1_OF_1_CHAL10_SF_9F23CF8E.png'
p467
I0
sS'00093-5710-01_PART_1_OF_1_CHAL10_SF_3F2B9FCC.png'
p468
I0
sS'00093-7157-06_PART_1_OF_1_CHAL10_SF_4D2BA68D.png'
p469
I0
sS'00093-7254-01_PART_1_OF_1_CHAL10_SF_632F3199.png'
p470
I0
sS'50111-0482-01_PART_1_OF_1_CHAL10_SF_3D301EF0.png'
p471
I0
sS'51285-0092-87_PART_2_OF_2_CHAL10_SF_C33061E3.png'
p472
I0
sS'00172-2083-60_PART_1_OF_1_CHAL10_SF_B122D8F6.png'
p473
I0
sS'00378-0183-01_PART_1_OF_1_CHAL10_SF_95204A82.png'
p474
I0
sS'00093-4405-01_PART_1_OF_1_CHAL10_SF_072D838C.png'
p475
I0
sS'00172-7310-46_PART_1_OF_1_CHAL10_SF_9B2BCDEE.png'
p476
I0
sS'00093-0221-06_PART_1_OF_1_CHAL10_SF_9F294FDA.png'
p477
I0
sS'00093-7443-56_PART_1_OF_1_CHAL10_SF_052702B8.png'
p478
I0
sS'00093-5852-01_PART_1_OF_1_CHAL10_SF_512BA8FD.png'
p479
I0
sS'51285-0697-02_PART_1_OF_1_CHAL10_SF_8E2F475A.png'
p480
I0
sS'63304-0579-01_PART_1_OF_1_CHAL10_SF_5D26AEB5.png'
p481
I0
sS'68546-0142-56_PART_1_OF_1_CHAL10_SF_3B2D1DE8.png'
p482
I0
sS'00555-0980-37_PART_1_OF_1_CHAL10_SF_96304B32.png'
p483
I0
sS'00172-4364-60_PART_1_OF_1_CHAL10_SF_C527E2FF.png'
p484
I0
sS'51285-0114-58_PART_3_OF_3_CHAL10_SF_9D2DCE8E.png'
p485
I0
sS'54092-0517-02_PART_1_OF_1_CHAL10_SF_D715EBBF.png'
p486
I0
sS'51285-0083-70_PART_1_OF_2_CHAL10_SF_2E2F970C.png'
p487
I0
sS'00093-0321-01_PART_1_OF_1_CHAL10_SF_902B486A.png'
p488
I0
sS'00378-6440-01_PART_1_OF_1_CHAL10_SF_E21DF16F.png'
p489
I0
sS'00186-0520-60_PART_1_OF_1_CHAL10_SF_C41DE20F.png'
p490
I0
sS'00555-9010-58_PART_2_OF_2_CHAL10_SF_3B2F9D9C.png'
p491
I0
sS'00093-3147-01_PART_1_OF_1_CHAL10_SF_24231258.png'
p492
I0
sS'00093-0314-01_PART_1_OF_1_CHAL10_SF_222B1118.png'
p493
I0
sS'00093-0012-98_PART_1_OF_1_CHAL10_SF_4D29A6AD.png'
p494
I0
sS'00093-5124-01_PART_1_OF_1_CHAL10_SF_3D2D9E8C.png'
p495
I0
sS'00555-0059-02_PART_1_OF_1_CHAL10_SF_A62DD30E.png'
p496
I0
sS'00456-1420-30_PART_1_OF_1_CHAL10_SF_44132249.png'
p497
I0
sS'00093-7147-56_PART_1_OF_1_CHAL10_SF_432BA1DD.png'
p498
I0
sS'00002-4463-30_PART_1_OF_1_CHAL10_SF_B5155ACA.png'
p499
I0
sS'00603-2406-21_PART_1_OF_1_CHAL10_SF_92204932.png'
p500
I0
sS'00555-0635-09_PART_1_OF_1_CHAL10_SF_92304922.png'
p501
I0
sS'00378-3855-77_PART_1_OF_1_CHAL10_SF_FB1C7D93.png'
p502
I0
sS'00093-0688-01_PART_1_OF_1_CHAL10_SF_3229995C.png'
p503
I0
sS'00093-3193-01_PART_1_OF_1_CHAL10_SF_AD29569A.png'
p504
I0
sS'00093-0090-01_PART_1_OF_1_CHAL10_SF_F32979AB.png'
p505
I0
sS'00093-2130-01_PART_1_OF_1_CHAL10_SF_E329F1AF.png'
p506
I0
sS'00093-5105-56_PART_1_OF_1_CHAL10_SF_102D880C.png'
p507
I0
sS'00186-1088-05_PART_1_OF_1_CHAL10_SF_A61C5302.png'
p508
I0
sS'00093-7292-53_PART_1_OF_1_CHAL10_SF_781B3C09.png'
p509
I0
sS'00074-3290-13_PART_1_OF_1_CHAL10_SF_EC1D766B.png'
p510
I0
sS'00591-3210-60_PART_1_OF_1_CHAL10_SF_341C9A14.png'
p511
I0
sS'00555-0066-02_PART_1_OF_1_CHAL10_SF_C82B642B.png'
p512
I0
sS'63304-0829-90_PART_1_OF_1_CHAL10_SF_D91C6CE3.png'
p513
I0
sS'00093-5505-56_PART_1_OF_1_CHAL10_SF_F426FA17.png'
p514
I0
sS'00172-4097-60_PART_1_OF_1_CHAL10_SF_7B26BDE5.png'
p515
I0
sS'00781-5187-01_PART_1_OF_1_CHAL10_SF_34239A1C.png'
p516
I0
sS'59762-1301-01_PART_1_OF_1_CHAL10_SF_292114A8.png'
p517
I0
sS'00143-9920-01_PART_1_OF_1_CHAL10_SF_A4265272.png'
p518
I0
sS'00591-5442-01_PART_1_OF_1_CHAL10_SF_BA205D42.png'
p519
I0
sS'00093-7335-06_PART_1_OF_1_CHAL10_SF_C526E2A7.png'
p520
I0
sS'00378-2077-01_PART_1_OF_1_CHAL10_SF_4426A255.png'
p521
I0
sS'53489-0469-01_PART_1_OF_1_CHAL10_SF_E92374FB.png'
p522
I0
sS'00173-0561-00_PART_1_OF_1_CHAL10_SF_97194BBA.png'
p523
I0
sS'00093-7146-18_PART_1_OF_1_CHAL10_SF_5D242E91.png'
p524
I0
sS'00093-0029-01_PART_1_OF_1_CHAL10_SF_18298C0C.png'
p525
I0
sS'00172-3761-60_PART_1_OF_1_CHAL10_SF_0E2D0708.png'
p526
I0
sS'00093-4234-01_PART_1_OF_1_CHAL10_SF_292D1488.png'
p527
I0
sS'65597-0701-18_PART_1_OF_1_CHAL10_SF_AD1DD6FE.png'
p528
I0
sS'00603-2545-21_PART_1_OF_1_CHAL10_SF_F223797B.png'
p529
I0
sS'50111-0468-01_PART_1_OF_1_CHAL10_SF_6121B0DD.png'
p530
I0
sS'00781-5184-01_PART_1_OF_1_CHAL10_SF_6E21B76D.png'
p531
I0
sS'00093-0109-01_PART_1_OF_1_CHAL10_SF_40202051.png'
p532
I0
sS'00093-0537-01_PART_1_OF_1_CHAL10_SF_942B4A7A.png'
p533
I0
sS'00781-1507-01_PART_1_OF_1_CHAL10_SF_39201C90.png'
p534
I0
sS'50111-0333-01_PART_1_OF_1_CHAL10_SF_133009F0.png'
p535
I0
sS'50111-0433-01_PART_1_OF_1_CHAL10_SF_21301080.png'
p536
I0
sS'00172-5032-60_PART_1_OF_1_CHAL10_SF_002D0078.png'
p537
I0
sS'50111-0518-01_PART_1_OF_1_CHAL10_SF_A82FD45E.png'
p538
I0
sS'00591-0406-01_PART_1_OF_1_CHAL10_SF_5C21AE6D.png'
p539
I0
sS'00143-1475-01_PART_1_OF_1_CHAL10_SF_B7205BF2.png'
p540
I0
sS'00555-0886-02_PART_1_OF_1_CHAL10_SF_4D2F2689.png'
p541
I0
sS'00093-0199-01_PART_1_OF_1_CHAL10_SF_B6295B4A.png'
p542
I0
sS'00378-1800-01_PART_1_OF_1_CHAL10_SF_6823B45D.png'
p543
I0
sS'00603-5771-21_PART_1_OF_1_CHAL10_SF_38231C78.png'
p544
I0
sS'00555-0211-10_PART_1_OF_1_CHAL10_SF_C32B61BB.png'
p545
I0
sS'00781-5186-01_PART_1_OF_1_CHAL10_SF_7A23BD5D.png'
p546
I0
sS'00187-0844-01_PART_1_OF_1_CHAL10_SF_AF1C5782.png'
p547
I0
sS'00555-0589-01_PART_1_OF_1_CHAL10_SF_172F8B9C.png'
p548
I0
sS'00555-9009-42_PART_1_OF_1_CHAL10_SF_E52F72DB.png'
p549
I0
sS'00143-3367-01_PART_1_OF_1_CHAL10_SF_821C4162.png'
p550
I0
sS'51285-0406-02_PART_1_OF_1_CHAL10_SF_E91FF4AF.png'
p551
I0
sS'00093-7180-01_PART_1_OF_1_CHAL10_SF_482BA47D.png'
p552
I0
sS'00078-0486-15_PART_1_OF_1_CHAL10_SF_E61D736B.png'
p553
I0
sS'00456-1550-60_PART_1_OF_1_CHAL10_SF_0D1C8694.png'
p554
I0
sS'00093-4404-01_PART_1_OF_1_CHAL10_SF_372D1BD8.png'
p555
I0
sS'50111-0916-01_PART_1_OF_1_CHAL10_SF_131D89EC.png'
p556
I0
sS'00093-0928-06_PART_1_OF_1_CHAL10_SF_6926B4E5.png'
p557
I0
sS'63459-0402-30_PART_1_OF_1_CHAL10_SF_AB2D559A.png'
p558
I0
sS'00093-7364-98_PART_1_OF_1_CHAL10_SF_AC305672.png'
p559
I0
sS'65862-0155-30_PART_1_OF_1_CHAL10_SF_FF23FFEF.png'
p560
I0
sS'00054-2526-25_PART_1_OF_1_CHAL10_SF_961C4B22.png'
p561
I0
sS'00093-3196-53_PART_1_OF_1_CHAL10_SF_C52DE2FF.png'
p562
I0
sS'00093-4237-01_PART_1_OF_1_CHAL10_SF_A323D19E.png'
p563
I0
sS'63459-0215-30_PART_1_OF_1_CHAL10_SF_D11C6893.png'
p564
I0
sS'00093-7485-20_PART_1_OF_1_CHAL10_SF_C73063F3.png'
p565
I0
sS'00172-5240-60_PART_1_OF_1_CHAL10_SF_A12DD0FE.png'
p566
I0
sS'00185-0048-01_PART_1_OF_1_CHAL10_SF_94234A0A.png'
p567
I0
sS'00172-4280-60_PART_1_OF_1_CHAL10_SF_8F21C7EE.png'
p568
I0
sS'00555-0139-09_PART_1_OF_1_CHAL10_SF_EE2B774B.png'
p569
I0
sS'00527-1413-01_PART_1_OF_1_CHAL10_SF_F420FA37.png'
p570
I0
sS'00093-7296-01_PART_1_OF_1_CHAL10_SF_F727FBEF.png'
p571
I0
sS'00093-2272-34_PART_1_OF_1_CHAL10_SF_DD2D6EBB.png'
p572
I0
sS'00555-0882-02_PART_1_OF_1_CHAL10_SF_9B304DA2.png'
p573
I0
sS'00093-7369-56_PART_1_OF_1_CHAL10_SF_AD2FD6CE.png'
p574
I0
sS'00172-2907-60_PART_1_OF_1_CHAL10_SF_AA26D556.png'
p575
I0
sS'00555-0887-02_PART_1_OF_1_CHAL10_SF_A02F505A.png'
p576
I0
sS'00093-5246-65_PART_1_OF_1_CHAL10_SF_9326C9E6.png'
p577
I0
sS'00093-7338-01_PART_1_OF_1_CHAL10_SF_642D3229.png'
p578
I0
sS'00172-4097-60_PART_1_OF_1_CHAL10_SF_532329F9.png'
p579
I0
sS'00555-0484-01_PART_1_OF_1_CHAL10_SF_092B84CC.png'
p580
I0
sS'60505-1308-01_PART_1_OF_1_CHAL10_SF_4F21A7DD.png'
p581
I0
sS'00555-0861-02_PART_1_OF_1_CHAL10_SF_482F2419.png'
p582
I0
sS'00093-2931-01_PART_1_OF_1_CHAL10_SF_4A2B2559.png'
p583
I0
sS'00093-0784-06_PART_1_OF_1_CHAL10_SF_3D2B1E98.png'
p584
I0
sS'51285-0539-02_PART_1_OF_1_CHAL10_SF_D13068D3.png'
p585
I0
sS'51672-4016-01_PART_1_OF_1_CHAL10_SF_09268484.png'
p586
I0
sS'00555-1021-01_PART_1_OF_1_CHAL10_SF_D52B6AEB.png'
p587
I0
sS'00378-4151-01_PART_1_OF_1_CHAL10_SF_2A21954C.png'
p588
I0
sS'00555-0832-02_PART_1_OF_1_CHAL10_SF_94214A4A.png'
p589
I0
sS'65597-0118-30_PART_1_OF_1_CHAL10_SF_071D83EC.png'
p590
I0
sS'00172-5411-46_PART_1_OF_1_CHAL10_SF_552DAA8D.png'
p591
I0
sS'00173-0760-60_PART_1_OF_3_CHAL10_SF_FB197DCB.png'
p592
I0
sS'51285-0595-02_PART_1_OF_1_CHAL10_SF_EE2FF76F.png'
p593
I0
sS'00378-4186-93_PART_1_OF_1_CHAL10_SF_37219BDC.png'
p594
I0
sS'00555-9012-58_PART_2_OF_4_CHAL10_SF_7A2FBD4D.png'
p595
I0
sS'00009-7663-04_PART_1_OF_1_CHAL10_SF_FD12FEA7.png'
p596
I0
sS'00093-7285-89_PART_1_OF_1_CHAL10_SF_B62FDB4E.png'
p597
I0
sS'00093-4338-01_PART_1_OF_1_CHAL10_SF_BC2DDE7E.png'
p598
I0
sS'00378-2072-01_PART_1_OF_1_CHAL10_SF_8621435A.png'
p599
I0
sS'51285-0754-02_PART_1_OF_1_CHAL10_SF_122F892C.png'
p600
I0
sS'00131-2478-35_PART_1_OF_1_CHAL10_SF_B41DDA5E.png'
p601
I0
sS'00093-7154-56_PART_1_OF_1_CHAL10_SF_2C281650.png'
p602
I0
sS'00172-7311-46_PART_1_OF_1_CHAL10_SF_922BC96E.png'
p603
I0
sS'51285-0083-70_PART_2_OF_2_CHAL10_SF_322F991C.png'
p604
I0
sS'63010-0027-70_PART_1_OF_1_CHAL10_SF_141B8A3C.png'
p605
I0
sS'68180-0478-01_PART_1_OF_1_CHAL10_SF_AB21558A.png'
p606
I0
sS'00555-9032-70_PART_2_OF_4_CHAL10_SF_562FAB1D.png'
p607
I0
sS'00093-7437-01_PART_1_OF_1_CHAL10_SF_80304022.png'
p608
I0
sS'00378-1819-01_PART_1_OF_1_CHAL10_SF_3F239FBC.png'
p609
I0
sS'00093-0734-01_PART_1_OF_1_CHAL10_SF_C022E017.png'
p610
I0
sS'00172-3761-60_PART_1_OF_1_CHAL10_SF_5226A915.png'
p611
I0
sS'00007-4891-20_PART_1_OF_1_CHAL10_SF_CD18E6D7.png'
p612
I0
sS'51285-0079-97_PART_1_OF_1_CHAL10_SF_EE2F775B.png'
p613
I0
sS'00178-0615-01_PART_1_OF_1_CHAL10_SF_581DAC0D.png'
p614
I0
sS'65862-0054-30_PART_1_OF_1_CHAL10_SF_C12160FB.png'
p615
I0
sS'00555-0607-02_PART_1_OF_1_CHAL10_SF_3F2F1F98.png'
p616
I0
sS'00093-7227-72_PART_1_OF_1_CHAL10_SF_CC306663.png'
p617
I0
sS'00172-3762-60_PART_1_OF_1_CHAL10_SF_0B2D85FC.png'
p618
I0
sS'00172-3762-60_PART_1_OF_1_CHAL10_SF_8B21C5AE.png'
p619
I0
sS'00172-3757-60_PART_1_OF_1_CHAL10_SF_FC2CFE07.png'
p620
I0
sS'00093-0657-01_PART_1_OF_1_CHAL10_SF_302B1808.png'
p621
I0
sS'00555-0831-02_PART_1_OF_1_CHAL10_SF_F321798B.png'
p622
I0
sS'16110-0075-01_PART_1_OF_1_CHAL10_SF_D21FE93F.png'
p623
I0
sS'00173-0759-60_PART_2_OF_3_CHAL10_SF_F219797B.png'
p624
I0
sS'00093-3167-53_PART_1_OF_1_CHAL10_SF_F7267B83.png'
p625
I0
sS'65862-0144-01_PART_1_OF_1_CHAL10_SF_5E212F49.png'
p626
I0
sS'00172-5034-60_PART_1_OF_1_CHAL10_SF_052D0288.png'
p627
I0
sS'00555-0715-58_PART_1_OF_1_CHAL10_SF_FB2F7DEB.png'
p628
I0
sS'00173-0178-55_PART_1_OF_1_CHAL10_SF_AF18D7A6.png'
p629
I0
sS'00378-0216-01_PART_1_OF_1_CHAL10_SF_74203A31.png'
p630
I0
sS'50458-0925-50_PART_1_OF_1_CHAL10_SF_741B3A59.png'
p631
I0
sS'00093-7365-56_PART_1_OF_1_CHAL10_SF_AA305552.png'
p632
I0
sS'00093-1024-06_PART_1_OF_1_CHAL10_SF_8E29C77E.png'
p633
I0
sS'00093-5215-01_PART_1_OF_1_CHAL10_SF_562BAB0D.png'
p634
I0
sS'68462-0160-01_PART_1_OF_1_CHAL10_SF_B123D88E.png'
p635
I0
sS'00093-4236-01_PART_1_OF_1_CHAL10_SF_262D937C.png'
p636
I0
sS'41616-0759-83_PART_1_OF_1_CHAL10_SF_671DB3BD.png'
p637
I0
sS'00781-5405-01_PART_1_OF_1_CHAL10_SF_4A132549.png'
p638
I0
sS'00093-7243-06_PART_1_OF_1_CHAL10_SF_7B293DD9.png'
p639
I0
sS'41616-0636-83_PART_1_OF_1_CHAL10_SF_1A240D60.png'
p640
I0
sS'00093-9774-01_PART_1_OF_1_CHAL10_SF_F922FC97.png'
p641
I0
sS'51285-0082-97_PART_1_OF_1_CHAL10_SF_E92F74EB.png'
p642
I0
sS'10144-0606-15_PART_1_OF_1_CHAL10_SF_FA1DFD0F.png'
p643
I0
sS'00093-0054-01_PART_1_OF_1_CHAL10_SF_7226B965.png'
p644
I0
sS'00378-3475-01_PART_1_OF_1_CHAL10_SF_6F243791.png'
p645
I0
sS'00093-7671-01_PART_1_OF_1_CHAL10_SF_FE26FF27.png'
p646
I0
sS'00555-0834-02_PART_1_OF_1_CHAL10_SF_D8216C0B.png'
p647
I0
sS'00002-3250-30_PART_1_OF_1_CHAL10_SF_431E21C1.png'
p648
I0
sS'00555-9014-67_PART_1_OF_2_CHAL10_SF_952FCACE.png'
p649
I0
sS'00093-5850-01_PART_1_OF_1_CHAL10_SF_852BC2AE.png'
p650
I0
sS'00093-5768-56_PART_1_OF_1_CHAL10_SF_7A1C3D41.png'
p651
I0
sS'60505-2580-09_PART_1_OF_1_CHAL10_SF_9B1DCDFE.png'
p652
I0
sS'50111-0307-01_PART_1_OF_1_CHAL10_SF_8429422A.png'
p653
I0
sS'59762-2004-01_PART_1_OF_1_CHAL10_SF_E61DF31F.png'
p654
I0
sS'53489-0531-01_PART_1_OF_1_CHAL10_SF_CD22E6D7.png'
p655
I0
sS'50111-0563-01_PART_1_OF_1_CHAL10_SF_4B3025E1.png'
p656
I0
sS'53489-0510-01_PART_1_OF_1_CHAL10_SF_14230A48.png'
p657
I0
sS'00378-1125-01_PART_1_OF_1_CHAL10_SF_7E203F41.png'
p658
I0
sS'00093-3171-01_PART_1_OF_1_CHAL10_SF_10268814.png'
p659
I0
sS'00591-5694-01_PART_1_OF_1_CHAL10_SF_F90E7C93.png'
p660
I0
sS'00378-1165-91_PART_1_OF_1_CHAL10_SF_3E201F00.png'
p661
I0
sS'53489-0143-01_PART_1_OF_1_CHAL10_SF_62213159.png'
p662
I0
sS'00378-6232-01_PART_1_OF_1_CHAL10_SF_70213849.png'
p663
I0
sS'00093-1003-01_PART_1_OF_1_CHAL10_SF_B326D9D6.png'
p664
I0
sS'00093-7325-01_PART_1_OF_1_CHAL10_SF_852D42DA.png'
p665
I0
sS'51285-0087-87_PART_2_OF_2_CHAL10_SF_912FC8BE.png'
p666
I0
sS'00003-4222-16_PART_1_OF_1_CHAL10_SF_F215F93F.png'
p667
I0
sS'00093-0658-01_PART_1_OF_1_CHAL10_SF_2B2B15C8.png'
p668
I0
sS'00555-1056-86_PART_1_OF_1_CHAL10_SF_DA306D53.png'
p669
I0
sS'00172-4364-60_PART_1_OF_1_CHAL10_SF_66243311.png'
p670
I0
sS'50458-0580-30_PART_1_OF_1_CHAL10_SF_791DBCBD.png'
p671
I0
sS'00093-3125-01_PART_1_OF_1_CHAL10_SF_DD26EEA7.png'
p672
I0
sS'00245-0041-11_PART_1_OF_1_CHAL10_SF_9623CB0E.png'
p673
I0
sS'55111-0197-30_PART_1_OF_1_CHAL10_SF_D7236B9B.png'
p674
I0
sS'00228-2634-06_PART_1_OF_1_CHAL10_SF_9C204E42.png'
p675
I0
sS'00093-2932-01_PART_1_OF_1_CHAL10_SF_DA296D4B.png'
p676
I0
sS'00093-1052-01_PART_1_OF_1_CHAL10_SF_AE29D76E.png'
p677
I0
sS'53489-0400-01_PART_1_OF_1_CHAL10_SF_C01C6053.png'
p678
I0
sS'50111-0327-01_PART_1_OF_1_CHAL10_SF_253012F0.png'
p679
I0
sS'00093-1026-06_PART_1_OF_1_CHAL10_SF_8129C0EE.png'
p680
I0
sS'00093-0576-06_PART_1_OF_1_CHAL10_SF_DB23EDBF.png'
p681
I0
sS'63304-0553-05_PART_1_OF_1_CHAL10_SF_D015681B.png'
p682
I0
sS'00074-7070-90_PART_1_OF_1_CHAL10_SF_991D4CFA.png'
p683
I0
sS'27437-0201-08_PART_1_OF_1_CHAL10_SF_B51D5AAA.png'
p684
I0
sS'10144-0604-15_PART_1_OF_1_CHAL10_SF_F21DF94F.png'
p685
I0
sS'00378-7002-93_PART_1_OF_1_CHAL10_SF_42242111.png'
p686
I0
sS'00093-3195-01_PART_1_OF_1_CHAL10_SF_BF295F9A.png'
p687
I0
sS'00832-1024-00_PART_1_OF_1_CHAL10_SF_6E233779.png'
p688
I0
sS'68382-0024-01_PART_1_OF_1_CHAL10_SF_A12050B2.png'
p689
I0
sS'00093-7182-01_PART_1_OF_1_CHAL10_SF_362B9B4C.png'
p690
I0
sS'66213-0421-10_PART_1_OF_1_CHAL10_SF_0815840C.png'
p691
I0
sS'00093-7772-01_PART_1_OF_1_CHAL10_SF_242D1278.png'
p692
I0
sS'55111-0344-30_PART_1_OF_1_CHAL10_SF_24241210.png'
p693
I0
sS'00093-7314-56_PART_1_OF_1_CHAL10_SF_18280C00.png'
p694
I0
sS'00093-0076-01_PART_1_OF_1_CHAL10_SF_B722DB96.png'
p695
I0
sS'59762-2002-01_PART_1_OF_1_CHAL10_SF_E81DF46F.png'
p696
I0
sS'00228-2779-11_PART_1_OF_1_CHAL10_SF_3F211FE8.png'
p697
I0
sS'00054-0166-25_PART_1_OF_1_CHAL10_SF_6A1DB56D.png'
p698
I0
sS'00002-3251-30_PART_1_OF_1_CHAL10_SF_451E2281.png'
p699
I0
sS'00172-4286-60_PART_1_OF_1_CHAL10_SF_142D8A7C.png'
p700
I0
sS'00093-0463-01_PART_1_OF_1_CHAL10_SF_5429AA3D.png'
p701
I0
sS'00173-0949-55_PART_1_OF_1_CHAL10_SF_3219995C.png'
p702
I0
sS'52544-0913-01_PART_1_OF_1_CHAL10_SF_AB1B558A.png'
p703
I0
sS'51285-0538-02_PART_1_OF_1_CHAL10_SF_9F304FB2.png'
p704
I0
sS'00093-4233-01_PART_1_OF_1_CHAL10_SF_322D1908.png'
p705
I0
sS'00093-5290-56_PART_1_OF_1_CHAL10_SF_21281080.png'
p706
I0
sS'68546-0229-56_PART_1_OF_1_CHAL10_SF_402D2059.png'
p707
I0
sS'00093-7466-98_PART_1_OF_1_CHAL10_SF_A51DD2AE.png'
p708
I0
sS'00093-2047-56_PART_1_OF_1_CHAL10_SF_EA29752B.png'
p709
I0
sS'00093-0755-06_PART_1_OF_1_CHAL10_SF_752B3AE9.png'
p710
I0
sS'00093-0924-01_PART_1_OF_1_CHAL10_SF_B729DBEE.png'
p711
I0
sS'00093-7247-06_PART_1_OF_1_CHAL10_SF_7329B9CD.png'
p712
I0
sS'50111-0884-05_PART_1_OF_1_CHAL10_SF_68303421.png'
p713
I0
sS'00093-8035-01_PART_1_OF_1_CHAL10_SF_DC266E63.png'
p714
I0
sS'00093-4444-01_PART_1_OF_1_CHAL10_SF_B42D5A1A.png'
p715
I0
sS'00093-7477-01_PART_1_OF_1_CHAL10_SF_9B294DCA.png'
p716
I0
sS'00378-2076-01_PART_1_OF_1_CHAL10_SF_5A23AD6D.png'
p717
I0
sS'59762-5018-01_PART_1_OF_1_CHAL10_SF_3B269DD4.png'
p718
I0
sS'00093-0536-01_PART_1_OF_1_CHAL10_SF_992B4CEA.png'
p719
I0
sS'60505-2671-09_PART_1_OF_1_CHAL10_SF_AB1DD5AE.png'
p720
I0
sS'00378-0232-01_PART_1_OF_1_CHAL10_SF_86204302.png'
p721
I0
sS'00378-0724-19_PART_1_OF_1_CHAL10_SF_39241C90.png'
p722
I0
sS'00093-4235-01_PART_1_OF_1_CHAL10_SF_222D910C.png'
p723
I0
sS'00093-0892-01_PART_1_OF_1_CHAL10_SF_A32B519A.png'
p724
I0
sS'00093-2046-56_PART_1_OF_1_CHAL10_SF_EE29773B.png'
p725
I0
sS'00074-9189-90_PART_1_OF_1_CHAL10_SF_DF1DEFBF.png'
p726
I0
sS'51285-0080-70_PART_1_OF_2_CHAL10_SF_402FA00D.png'
p727
I0
sS'00555-0917-09_PART_1_OF_1_CHAL10_SF_312018D0.png'
p728
I0
sS'00143-1268-01_PART_1_OF_1_CHAL10_SF_7321B9DD.png'
p729
I0
sS'00597-0046-60_PART_1_OF_1_CHAL10_SF_C01DE05F.png'
p730
I0
sS'53014-0404-10_PART_1_OF_1_CHAL10_SF_2D1C9684.png'
p731
I0
sS'15456-0980-04_PART_1_OF_1_CHAL10_SF_9418CA26.png'
p732
I0
sS'00555-0138-09_PART_1_OF_1_CHAL10_SF_122B894C.png'
p733
I0
sS'00378-2650-01_PART_1_OF_1_CHAL10_SF_5626AB55.png'
p734
I0
sS'64720-0323-10_PART_1_OF_1_CHAL10_SF_F51DFA9F.png'
p735
I0
sS'00555-0874-02_PART_1_OF_1_CHAL10_SF_B82F5C5A.png'
p736
I0
sS'25010-0205-15_PART_1_OF_1_CHAL10_SF_E61FF35F.png'
p737
I0
sS'00378-1823-01_PART_1_OF_1_CHAL10_SF_D723EBAF.png'
p738
I0
sS'00002-3228-30_PART_1_OF_1_CHAL10_SF_391E1C80.png'
p739
I0
sS'00093-7464-56_PART_1_OF_1_CHAL10_SF_132809F0.png'
p740
I0
sS'51285-0091-58_PART_1_OF_2_CHAL10_SF_8B2DC58E.png'
p741
I0
sS'50111-0323-01_PART_1_OF_1_CHAL10_SF_AA2F556A.png'
p742
I0
sS'51285-0524-02_PART_1_OF_1_CHAL10_SF_582F2C29.png'
p743
I0
sS'00093-1177-01_PART_1_OF_1_CHAL10_SF_4F2B27C9.png'
p744
I0
sS'00555-0071-01_PART_1_OF_1_CHAL10_SF_BF2B5FAA.png'
p745
I0
sS'00555-0733-02_PART_1_OF_1_CHAL10_SF_3B2F1D88.png'
p746
I0
sS'00093-5127-01_PART_1_OF_1_CHAL10_SF_432DA18D.png'
p747
I0
sS'00093-5502-01_PART_1_OF_1_CHAL10_SF_742DBA1D.png'
p748
I0
sS'00071-0155-23_PART_1_OF_1_CHAL10_SF_711C38F1.png'
p749
I0
sS'00093-1087-01_PART_1_OF_1_CHAL10_SF_9E29CF5E.png'
p750
I0
sS'00555-9032-70_PART_1_OF_4_CHAL10_SF_522FA90D.png'
p751
I0
sS'50111-0393-01_PART_1_OF_1_CHAL10_SF_61233089.png'
p752
I0
sS'65197-0002-01_PART_1_OF_1_CHAL10_SF_3315999C.png'
p753
I0
sS'68012-0104-30_PART_1_OF_1_CHAL10_SF_EE1DF76F.png'
p754
I0
sS'00228-2550-06_PART_1_OF_1_CHAL10_SF_412320F9.png'
p755
I0
sS'00093-7381-01_PART_1_OF_1_CHAL10_SF_512928D9.png'
p756
I0
sS'00093-2203-01_PART_1_OF_1_CHAL10_SF_CE27E77F.png'
p757
I0
sS'62559-1507-00_PART_1_OF_1_CHAL10_SF_8415C24E.png'
p758
I0
sS'00093-4030-01_PART_1_OF_1_CHAL10_SF_04268274.png'
p759
I0
sS'99207-0461-30_PART_1_OF_1_CHAL10_SF_EF1C7793.png'
p760
I0
sS'00185-0053-01_PART_1_OF_1_CHAL10_SF_9D234E8A.png'
p761
I0
sS'00591-5788-01_PART_1_OF_1_CHAL10_SF_C51FE2DF.png'
p762
I0
sS'00093-0811-01_PART_1_OF_1_CHAL10_SF_20231018.png'
p763
I0
sS'00172-5311-60_PART_1_OF_1_CHAL10_SF_04280270.png'
p764
I0
sS'00093-7326-01_PART_1_OF_1_CHAL10_SF_812D40CA.png'
p765
I0
sS'53746-0190-05_PART_1_OF_1_CHAL10_SF_CD1D66AB.png'
p766
I0
sS'00555-0485-27_PART_1_OF_1_CHAL10_SF_0D2B86DC.png'
p767
I0
sS'60505-0146-00_PART_1_OF_1_CHAL10_SF_46292339.png'
p768
I0
sS'00074-7068-19_PART_1_OF_1_CHAL10_SF_A31D51AA.png'
p769
I0
sS'00093-7426-56_PART_1_OF_1_CHAL10_SF_DC27EE6F.png'
p770
I0
sS'00378-0503-01_PART_1_OF_1_CHAL10_SF_C923E4BF.png'
p771
I0
sS'68462-0163-01_PART_1_OF_1_CHAL10_SF_DC216E7B.png'
p772
I0
sS'00143-1227-01_PART_1_OF_1_CHAL10_SF_C123608B.png'
p773
I0
sS'00555-1883-02_PART_1_OF_1_CHAL10_SF_92324902.png'
p774
I0
sS'51672-4032-01_PART_1_OF_1_CHAL10_SF_E52672E3.png'
p775
I0
sS'00555-0808-02_PART_1_OF_1_CHAL10_SF_62303121.png'
p776
I0
sS'00185-0505-01_PART_1_OF_1_CHAL10_SF_A623530A.png'
p777
I0
sS'00378-2180-01_PART_1_OF_1_CHAL10_SF_8F23479A.png'
p778
I0
sS'00603-3079-21_PART_1_OF_1_CHAL10_SF_F4267A63.png'
p779
I0
sS'00555-1020-01_PART_1_OF_1_CHAL10_SF_D02B687B.png'
p780
I0
sS'00074-7149-90_PART_1_OF_1_CHAL10_SF_931D49FA.png'
p781
I0
sS'00093-7155-98_PART_1_OF_1_CHAL10_SF_4A21A50D.png'
p782
I0
sS'00603-3856-21_PART_1_OF_1_CHAL10_SF_AC265632.png'
p783
I0
sS'00093-7153-56_PART_1_OF_1_CHAL10_SF_E527F2EF.png'
p784
I0
sS'00093-5504-56_PART_1_OF_1_CHAL10_SF_292714E8.png'
p785
I0
sS'49884-0401-91_PART_1_OF_1_CHAL10_SF_421CA105.png'
p786
I0
sS'00093-5117-98_PART_1_OF_1_CHAL10_SF_522D2929.png'
p787
I0
sS'00228-2717-11_PART_1_OF_1_CHAL10_SF_56232B19.png'
p788
I0
sS'50111-0851-01_PART_1_OF_1_CHAL10_SF_873243C2.png'
p789
I0
sS'65162-0212-11_PART_1_OF_1_CHAL10_SF_AD1C56C2.png'
p790
I0
sS'00172-2083-60_PART_1_OF_1_CHAL10_SF_6426B215.png'
p791
I0
sS'00078-0521-15_PART_1_OF_1_CHAL10_SF_E51D72AB.png'
p792
I0
sS'00093-7286-89_PART_1_OF_1_CHAL10_SF_D62FEB6F.png'
p793
I0
sS'00093-0155-06_PART_1_OF_1_CHAL10_SF_BA295D5A.png'
p794
I0
sS'00143-9919-01_PART_1_OF_1_CHAL10_SF_02230118.png'
p795
I0
sS'50111-0334-01_PART_1_OF_1_CHAL10_SF_0E300720.png'
p796
I0
sS'65580-0303-03_PART_1_OF_1_CHAL10_SF_0A128554.png'
p797
I0
sS'00056-0170-70_PART_1_OF_1_CHAL10_SF_95134AFA.png'
p798
I0
sS'00093-0148-01_PART_1_OF_1_CHAL10_SF_4629A34D.png'
p799
I0
sS'63459-0416-30_PART_1_OF_1_CHAL10_SF_8F2D47EA.png'
p800
I0
sS'00591-5307-01_PART_1_OF_1_CHAL10_SF_B8215C7A.png'
p801
I0
sS'59148-0006-13_PART_1_OF_1_CHAL10_SF_97154BCA.png'
p802
I0
sS'00093-7380-01_PART_1_OF_1_CHAL10_SF_A0265062.png'
p803
I0
sS'00378-2074-01_PART_1_OF_1_CHAL10_SF_8B2145CA.png'
p804
I0
sS'00603-2957-21_PART_1_OF_1_CHAL10_SF_46232309.png'
p805
I0
sS'00591-0302-01_PART_1_OF_1_CHAL10_SF_8D2046C2.png'
p806
I0
sS'00093-5119-98_PART_1_OF_1_CHAL10_SF_492D24A9.png'
p807
I0
sS'00777-3105-02_PART_1_OF_1_CHAL10_SF_061C8364.png'
p808
I0
sS'00093-5271-56_PART_1_OF_1_CHAL10_SF_EB2D75AB.png'
p809
I0
sS'00555-9032-70_PART_4_OF_4_CHAL10_SF_5F2FAFCD.png'
p810
I0
sS'00093-7214-98_PART_1_OF_1_CHAL10_SF_C929E4EF.png'
p811
I0
sS'00603-5438-21_PART_1_OF_1_CHAL10_SF_B0265872.png'
p812
I0
sS'50111-0324-01_PART_1_OF_1_CHAL10_SF_A62F535A.png'
p813
I0
sS'00093-2158-01_PART_1_OF_1_CHAL10_SF_5A2B2D69.png'
p814
I0
sS'00173-0562-00_PART_1_OF_1_CHAL10_SF_A01C5002.png'
p815
I0
sS'59762-5008-01_PART_1_OF_1_CHAL10_SF_8508C2E6.png'
p816
I0
sS'49884-0544-01_PART_1_OF_1_CHAL10_SF_1C218E5C.png'
p817
I0
sS'00093-5712-01_PART_1_OF_1_CHAL10_SF_242B924C.png'
p818
I0
sS'00555-0835-02_PART_1_OF_1_CHAL10_SF_CA2F655B.png'
p819
I0
sS'00228-2803-11_PART_1_OF_1_CHAL10_SF_34269A44.png'
p820
I0
sS'51285-0063-90_PART_1_OF_2_CHAL10_SF_6F2D3799.png'
p821
I0
sS'00093-0051-01_PART_1_OF_1_CHAL10_SF_3E281F50.png'
p822
I0
sS'00007-4882-13_PART_1_OF_1_CHAL10_SF_E118F097.png'
p823
I0
sS'52544-0291-28_PART_1_OF_4_CHAL10_SF_5C1E2E51.png'
p824
I0
sS'55111-0198-30_PART_1_OF_1_CHAL10_SF_E022F067.png'
p825
I0
sS'51672-4033-01_PART_1_OF_1_CHAL10_SF_A72653F2.png'
p826
I0
sS'00007-4893-20_PART_1_OF_1_CHAL10_SF_D118E887.png'
p827
I0
sS'65580-0302-03_PART_1_OF_1_CHAL10_SF_04128254.png'
p828
I0
sS'00093-8940-01_PART_1_OF_1_CHAL10_SF_FB267DF3.png'
p829
I0
sS'59762-5022-01_PART_1_OF_1_CHAL10_SF_DE1C6F53.png'
p830
I0
sS'00093-1060-01_PART_1_OF_1_CHAL10_SF_EE21777B.png'
p831
I0
sS'00093-7536-56_PART_1_OF_1_CHAL10_SF_272813E0.png'
p832
I0
sS'00093-5455-28_PART_1_OF_1_CHAL10_SF_822DC10E.png'
p833
I0
sS'53489-0135-01_PART_1_OF_1_CHAL10_SF_36211B38.png'
p834
I0
sS'00228-2633-06_PART_1_OF_1_CHAL10_SF_6C203671.png'
p835
I0
sS'00555-0286-02_PART_1_OF_1_CHAL10_SF_F92B7CEB.png'
p836
I0
sS'00074-1973-54_PART_1_OF_1_CHAL10_SF_BE1DDF0E.png'
p837
I0
sS'00172-5033-60_PART_1_OF_1_CHAL10_SF_BD2D5E9A.png'
p838
I0
sS'13811-0583-30_PART_1_OF_1_CHAL10_SF_911DC8BE.png'
p839
I0
sS'00173-0933-08_PART_1_OF_1_CHAL10_SF_2E1D970C.png'
p840
I0
sS'00093-0039-01_PART_1_OF_1_CHAL10_SF_4F29A7CD.png'
p841
I0
sS'00093-1077-01_PART_1_OF_1_CHAL10_SF_60293059.png'
p842
I0
sS'00093-3109-53_PART_1_OF_1_CHAL10_SF_C819644B.png'
p843
I0
sS'00378-1010-01_PART_1_OF_1_CHAL10_SF_072103C8.png'
p844
I0
sS'00093-0058-05_PART_1_OF_1_CHAL10_SF_5829AC4D.png'
p845
I0
sS'00093-7113-06_PART_1_OF_1_CHAL10_SF_E029F05F.png'
p846
I0
sS'00093-4030-01_PART_1_OF_1_CHAL10_SF_20271038.png'
p847
I0
sS'00172-5410-46_PART_1_OF_1_CHAL10_SF_502DA81D.png'
p848
I0
sS'00093-1044-01_PART_1_OF_1_CHAL10_SF_B229D97E.png'
p849
I0
sS'00555-9027-42_PART_1_OF_1_CHAL10_SF_F72F7BDB.png'
p850
I0
sS'00555-0873-02_PART_1_OF_1_CHAL10_SF_BA305D62.png'
p851
I0
sS'00093-4232-01_PART_1_OF_1_CHAL10_SF_2D2D16F8.png'
p852
I0
sS'00186-1092-05_PART_1_OF_1_CHAL10_SF_191D8CEC.png'
p853
I0
sS'63459-0101-30_PART_1_OF_1_CHAL10_SF_DD1C6E93.png'
p854
I0
sS'00007-4471-20_PART_1_OF_1_CHAL10_SF_7618BB55.png'
p855
I0
sS'64980-0112-01_PART_1_OF_1_CHAL10_SF_DC236E0B.png'
p856
I0
sS'00555-0899-02_PART_1_OF_1_CHAL10_SF_442F2209.png'
p857
I0
sS'00093-3165-01_PART_1_OF_1_CHAL10_SF_36231B28.png'
p858
I0
sS'00056-0188-70_PART_1_OF_1_CHAL10_SF_9B134DFA.png'
p859
I0
sS'00093-5172-20_PART_1_OF_1_CHAL10_SF_782D3C19.png'
p860
I0
sS'00781-1146-01_PART_1_OF_1_CHAL10_SF_F422FA27.png'
p861
I0
sS'00591-2473-19_PART_1_OF_1_CHAL10_SF_F11D78AB.png'
p862
I0
sS'00093-7201-98_PART_1_OF_1_CHAL10_SF_D327E9EF.png'
p863
I0
sS'00186-1090-05_PART_1_OF_1_CHAL10_SF_0D1D86EC.png'
p864
I0
sS'00093-2267-01_PART_1_OF_1_CHAL10_SF_052982AC.png'
p865
I0
sS'00172-4096-60_PART_1_OF_1_CHAL10_SF_5C232E79.png'
p866
I0
sS'00555-9026-58_PART_2_OF_2_CHAL10_SF_202F901C.png'
p867
I0
sS'00555-9034-58_PART_2_OF_2_CHAL10_SF_712FB8CD.png'
p868
I0
sS'00527-1311-01_PART_1_OF_1_CHAL10_SF_2D2696B4.png'
p869
I0
sS'00555-9032-70_PART_3_OF_4_CHAL10_SF_5B2FAD8D.png'
p870
I0
sS'00093-2268-01_PART_1_OF_1_CHAL10_SF_D5296ADB.png'
p871
I0
sS'66582-0313-31_PART_1_OF_1_CHAL10_SF_931DC9AE.png'
p872
I0
sS'50419-0488-58_PART_1_OF_1_CHAL10_SF_1C190E68.png'
p873
I0
sS'00597-0044-37_PART_1_OF_1_CHAL10_SF_D116E8D7.png'
p874
I0
sS'00093-7540-06_PART_1_OF_1_CHAL10_SF_6D2936E9.png'
p875
I0
sS'00093-3167-53_PART_1_OF_1_CHAL10_SF_10270828.png'
p876
I0
sS'00093-7259-56_PART_1_OF_1_CHAL10_SF_B92FDCFE.png'
p877
I0
sS'00074-9296-90_PART_1_OF_1_CHAL10_SF_A51D52FA.png'
p878
I0
sS'00093-5142-56_PART_1_OF_1_CHAL10_SF_C62D631B.png'
p879
I0
sS'00555-9028-58_PART_1_OF_2_CHAL10_SF_642FB23D.png'
p880
I0
sS'68453-0850-75_PART_1_OF_1_CHAL10_SF_12200910.png'
p881
I0
sS'00781-1452-01_PART_1_OF_1_CHAL10_SF_D720EBF7.png'
p882
I0
sS'00378-1110-01_PART_1_OF_1_CHAL10_SF_15210A88.png'
p883
I0
sS'00093-4336-01_PART_1_OF_1_CHAL10_SF_CA2DE50F.png'
p884
I0
sS'62037-0577-01_PART_1_OF_1_CHAL10_SF_10210878.png'
p885
I0
sS'50111-0395-01_PART_1_OF_1_CHAL10_SF_AF2F57DA.png'
p886
I0
sS'65862-0537-50_PART_1_OF_1_CHAL10_SF_3A1B9D5C.png'
p887
I0
sS'00172-5413-46_PART_1_OF_1_CHAL10_SF_E923F4AF.png'
p888
I0
sS'59762-5033-02_PART_1_OF_1_CHAL10_SF_8015C00E.png'
p889
I0
sS'00093-7223-98_PART_1_OF_1_CHAL10_SF_882FC43E.png'
p890
I0
sS'00172-2089-60_PART_1_OF_1_CHAL10_SF_9C26CE66.png'
p891
I0
sS'00093-5214-01_PART_1_OF_1_CHAL10_SF_5A2BAD7D.png'
p892
I0
sS'16714-0663-01_PART_1_OF_1_CHAL10_SF_3F159FCC.png'
p893
I0
sS'00093-1015-01_PART_1_OF_1_CHAL10_SF_A929D4FE.png'
p894
I0
sS'63459-0412-30_PART_1_OF_1_CHAL10_SF_8B2D45DA.png'
p895
I0
sS'50111-0852-01_PART_1_OF_1_CHAL10_SF_0D2306B8.png'
p896
I0
sS'00378-0186-01_PART_1_OF_1_CHAL10_SF_5626AB25.png'
p897
I0
sS'00093-1078-53_PART_1_OF_1_CHAL10_SF_8529C2FE.png'
p898
I0
sS'00378-0184-01_PART_1_OF_1_CHAL10_SF_652032B1.png'
p899
I0
sS'00093-3160-06_PART_1_OF_1_CHAL10_SF_FB297DFB.png'
p900
I0
sS'00555-1055-86_PART_1_OF_1_CHAL10_SF_E33071D3.png'
p901
I0
sS'00555-9034-58_PART_1_OF_2_CHAL10_SF_6D2FB6BD.png'
p902
I0
sS'00093-5141-56_PART_1_OF_1_CHAL10_SF_172D0B88.png'
p903
I0
sS'00093-1025-06_PART_1_OF_1_CHAL10_SF_8A29C56E.png'
p904
I0
sS'00143-1257-01_PART_1_OF_1_CHAL10_SF_FD22FEA7.png'
p905
I0
sS'00093-7244-06_PART_1_OF_1_CHAL10_SF_CD2FE6EF.png'
p906
I0
sS'00093-1063-01_PART_1_OF_1_CHAL10_SF_A029D07E.png'
p907
I0
sS'00172-5413-46_PART_1_OF_1_CHAL10_SF_5E2DAF0D.png'
p908
I0
sS'00093-7239-98_PART_1_OF_1_CHAL10_SF_A71DD3FE.png'
p909
I0
sS'00007-4896-20_PART_1_OF_1_CHAL10_SF_D818EC47.png'
p910
I0
sS'00069-2600-66_PART_1_OF_1_CHAL10_SF_3A211D78.png'
p911
I0
sS'00310-0282-60_PART_1_OF_1_CHAL10_SF_0F1C87E4.png'
p912
I0
sS'00378-3482-01_PART_1_OF_1_CHAL10_SF_3023980C.png'
p913
I0
sS'68382-0022-01_PART_1_OF_1_CHAL10_SF_59202C81.png'
p914
I0
sS'55111-0268-30_PART_1_OF_1_CHAL10_SF_C422E227.png'
p915
I0
sS'00093-3012-84_PART_1_OF_1_CHAL10_SF_F32CF987.png'
p916
I0
sS'49884-0652-01_PART_1_OF_1_CHAL10_SF_132189DC.png'
p917
I0
sS'00172-5361-60_PART_1_OF_1_CHAL10_SF_CA23650B.png'
p918
I0
sS'00093-0058-01_PART_1_OF_1_CHAL10_SF_00280060.png'
p919
I0
sS'00093-7350-56_PART_1_OF_1_CHAL10_SF_5B2D2DA9.png'
p920
I0
sS'62037-0999-10_PART_1_OF_1_CHAL10_SF_C71D63AB.png'
p921
I0
sS'00093-5506-56_PART_1_OF_1_CHAL10_SF_1E270F18.png'
p922
I0
sS'50111-0328-01_PART_1_OF_1_CHAL10_SF_00300060.png'
p923
I0
sS'00093-4742-01_PART_1_OF_1_CHAL10_SF_E62D736B.png'
p924
I0
sS'00093-5256-68_PART_1_OF_1_CHAL10_SF_8727C3AE.png'
p925
I0
sS'00093-0752-01_PART_1_OF_1_CHAL10_SF_8826C476.png'
p926
I0
sS'00093-7425-56_PART_1_OF_1_CHAL10_SF_D727EBFF.png'
p927
I0
sS'50111-0647-01_PART_1_OF_1_CHAL10_SF_893044A2.png'
p928
I0
sS'00013-5301-17_PART_1_OF_1_CHAL10_SF_691E34B1.png'
p929
I0
sS'61958-1001-01_PART_1_OF_1_CHAL10_SF_E31C7193.png'
p930
I0
sS'00093-2210-98_PART_1_OF_1_CHAL10_SF_B827DC6E.png'
p931
I0
sS'00093-5062-05_PART_1_OF_1_CHAL10_SF_942D4A5A.png'
p932
I0
sS'00093-5140-56_PART_1_OF_1_CHAL10_SF_1B2D0DF8.png'
p933
I0
sS'00002-4464-30_PART_1_OF_1_CHAL10_SF_B8155C1A.png'
p934
I0
sS'00093-7370-01_PART_1_OF_1_CHAL10_SF_C419623B.png'
p935
I0
sS'68180-0479-01_PART_1_OF_1_CHAL10_SF_B4215A0A.png'
p936
I0
sS'51672-4042-02_PART_1_OF_1_CHAL10_SF_D6156B1B.png'
p937
I0
sS'00093-7270-98_PART_1_OF_1_CHAL10_SF_9027C85E.png'
p938
I0
sS'00603-6148-21_PART_1_OF_1_CHAL10_SF_5126A8E5.png'
p939
I0
sS'00555-9008-67_PART_2_OF_2_CHAL10_SF_292F949C.png'
p940
I0
sS'00228-2127-10_PART_1_OF_1_CHAL10_SF_5321A9ED.png'
p941
I0
sS'64679-0953-01_PART_1_OF_1_CHAL10_SF_6A21B55D.png'
p942
I0
sS'59762-4910-01_PART_1_OF_1_CHAL10_SF_672133C9.png'
p943
I0
sS'00172-3649-60_PART_1_OF_1_CHAL10_SF_A126D0D6.png'
p944
I0
sS'00591-5556-01_PART_1_OF_1_CHAL10_SF_0E21876C.png'
p945
I0
sS'00093-7256-01_PART_1_OF_1_CHAL10_SF_EA267553.png'
p946
I0
sS'00093-0753-01_PART_1_OF_1_CHAL10_SF_A526D2E6.png'
p947
I0
sS'00085-1322-01_PART_1_OF_1_CHAL10_SF_CF07E78F.png'
p948
I0
sS'00093-9133-06_PART_1_OF_1_CHAL10_SF_A4205202.png'
p949
I0
sS'50458-0551-01_PART_1_OF_1_CHAL10_SF_0F1607A0.png'
p950
I0
sS'00093-4237-01_PART_1_OF_1_CHAL10_SF_2B2D958C.png'
p951
I0
sS'00093-2274-34_PART_1_OF_1_CHAL10_SF_022D814C.png'
p952
I0
sS'00069-4210-30_PART_1_OF_1_CHAL10_SF_641DB26D.png'
p953
I0
sS'00078-0572-15_PART_1_OF_1_CHAL10_SF_381D9C4C.png'
p954
I0
sS'00093-0756-01_PART_1_OF_1_CHAL10_SF_19268C94.png'
p955
I0
sS'00172-7312-46_PART_1_OF_1_CHAL10_SF_972BCBDE.png'
p956
I0
sS'00093-2263-01_PART_1_OF_1_CHAL10_SF_0029803C.png'
p957
I0
sS'00093-2048-56_PART_1_OF_1_CHAL10_SF_632B3189.png'
p958
I0
sS'64764-0918-30_PART_1_OF_1_CHAL10_SF_351D9A9C.png'
p959
I0
sS'00555-0634-02_PART_1_OF_1_CHAL10_SF_5D302EB1.png'
p960
I0
sS'50111-0901-01_PART_1_OF_1_CHAL10_SF_8B3245D2.png'
p961
I0
sS'51285-0087-87_PART_1_OF_2_CHAL10_SF_8C2FC64E.png'
p962
I0
sS'00093-4067-01_PART_1_OF_1_CHAL10_SF_CE26E757.png'
p963
I0
sS'29033-0020-12_PART_1_OF_1_CHAL10_SF_BE135F6A.png'
p964
I0
sS'00074-5182-19_PART_1_OF_1_CHAL10_SF_AF1D57AA.png'
p965
I0
sS'00093-0311-01_PART_1_OF_1_CHAL10_SF_26211358.png'
p966
I0
sS'00378-0505-01_PART_1_OF_1_CHAL10_SF_652332F9.png'
p967
I0
sS'00093-5385-06_PART_1_OF_1_CHAL10_SF_FB27FDFF.png'
p968
I0
sS'00781-1191-01_PART_1_OF_1_CHAL10_SF_F920FCA7.png'
p969
I0
sS'00172-4366-60_PART_1_OF_1_CHAL10_SF_7F26BFF5.png'
p970
I0
sS'00093-3129-01_PART_1_OF_1_CHAL10_SF_B32DD9FE.png'
p971
I0
sS'00093-5703-01_PART_1_OF_1_CHAL10_SF_7D2DBE9D.png'
p972
I0
sS'00093-7202-98_PART_1_OF_1_CHAL10_SF_6323B1ED.png'
p973
I0
sS'00555-0588-01_PART_1_OF_1_CHAL10_SF_77303BA1.png'
p974
I0
sS'00093-2061-98_PART_1_OF_1_CHAL10_SF_552B2A99.png'
p975
I0
sS'51285-0523-02_PART_1_OF_1_CHAL10_SF_2F3017D0.png'
p976
I0
sS'00172-3758-60_PART_1_OF_1_CHAL10_SF_092D04F8.png'
p977
I0
sS'53489-0105-01_PART_1_OF_1_CHAL10_SF_3D269EF4.png'
p978
I0
sS'00093-3147-01_PART_1_OF_1_CHAL10_SF_C51962CB.png'
p979
I0
sS'63304-0827-90_PART_1_OF_1_CHAL10_SF_F51C7A93.png'
p980
I0
sS'00071-1015-68_PART_1_OF_1_CHAL10_SF_5215A92D.png'
p981
I0
sS'00093-0220-56_PART_1_OF_1_CHAL10_SF_37299BCC.png'
p982
I0
sS'00093-0026-01_PART_1_OF_1_CHAL10_SF_5D29AEBD.png'
p983
I0
sS'50111-0441-01_PART_1_OF_1_CHAL10_SF_E02F706B.png'
p984
I0
sS'00093-7236-56_PART_1_OF_1_CHAL10_SF_422B2109.png'
p985
I0
sS'00555-0140-09_PART_1_OF_1_CHAL10_SF_EE2B771B.png'
p986
I0
sS'00037-2250-10_PART_1_OF_1_CHAL10_SF_BD1D5EFA.png'
p987
I0
sS'50111-0467-01_PART_1_OF_1_CHAL10_SF_54302A61.png'
p988
I0
sS'00029-3159-13_PART_1_OF_1_CHAL10_SF_E418F247.png'
p989
I0
sS'00555-9014-67_PART_2_OF_2_CHAL10_SF_9B2FCDCE.png'
p990
I0
sS'00093-5208-01_PART_1_OF_1_CHAL10_SF_7C2BBE2D.png'
p991
I0
sS'00093-2080-01_PART_1_OF_1_CHAL10_SF_D326E9C7.png'
p992
I0
sS'00093-4443-01_PART_1_OF_1_CHAL10_SF_9E2D4F0A.png'
p993
I0
sS'00173-0595-00_PART_1_OF_1_CHAL10_SF_10230838.png'
p994
I0
sS'00002-3238-30_PART_1_OF_1_CHAL10_SF_361E1B30.png'
p995
I0
sS'42043-0190-04_PART_1_OF_1_CHAL10_SF_6D1DB6BD.png'
p996
I0
sS'00555-0483-02_PART_1_OF_1_CHAL10_SF_002B804C.png'
p997
I0
sS'00143-1240-01_PART_1_OF_1_CHAL10_SF_4F232789.png'
p998
I0
sS'00378-1411-01_PART_1_OF_1_CHAL10_SF_8023407A.png'
p999
I0
sS'00093-1048-98_PART_1_OF_1_CHAL10_SF_C029E06F.png'
p1000
I0
sS'00555-0252-02_PART_1_OF_1_CHAL10_SF_162B8B5C.png'
p1001
I0
s.